ARM GAS  C:\Users\becca\AppData\Local\Temp\ccAhbELO.s 			page 1


   1              		.syntax unified
   2              		.cpu cortex-m0
   3              		.fpu softvfp
   4              		.eabi_attribute 20, 1
   5              		.eabi_attribute 21, 1
   6              		.eabi_attribute 23, 3
   7              		.eabi_attribute 24, 1
   8              		.eabi_attribute 25, 1
   9              		.eabi_attribute 26, 1
  10              		.eabi_attribute 30, 1
  11              		.eabi_attribute 34, 0
  12              		.eabi_attribute 18, 4
  13              		.thumb
  14              		.syntax unified
  15              		.file	"cyfitter_cfg.c"
  16              		.text
  17              	.Ltext0:
  18              		.cfi_sections	.debug_frame
  19              		.section	.text.cfg_write_bytes32,"ax",%progbits
  20              		.align	2
  21              		.code	16
  22              		.thumb_func
  23              		.type	cfg_write_bytes32, %function
  24              	cfg_write_bytes32:
  25              	.LFB4:
  26              		.file 1 "Generated_Source\\PSoC4\\cyfitter_cfg.c"
   1:Generated_Source\PSoC4/cyfitter_cfg.c **** 
   2:Generated_Source\PSoC4/cyfitter_cfg.c **** /*******************************************************************************
   3:Generated_Source\PSoC4/cyfitter_cfg.c **** * File Name: cyfitter_cfg.c
   4:Generated_Source\PSoC4/cyfitter_cfg.c **** * 
   5:Generated_Source\PSoC4/cyfitter_cfg.c **** * PSoC Creator  4.4
   6:Generated_Source\PSoC4/cyfitter_cfg.c **** *
   7:Generated_Source\PSoC4/cyfitter_cfg.c **** * Description:
   8:Generated_Source\PSoC4/cyfitter_cfg.c **** * This file contains device initialization code.
   9:Generated_Source\PSoC4/cyfitter_cfg.c **** * Except for the user defined sections in CyClockStartupError(), this file should not be modified.
  10:Generated_Source\PSoC4/cyfitter_cfg.c **** * This file is automatically generated by PSoC Creator.
  11:Generated_Source\PSoC4/cyfitter_cfg.c **** *
  12:Generated_Source\PSoC4/cyfitter_cfg.c **** ********************************************************************************
  13:Generated_Source\PSoC4/cyfitter_cfg.c **** * Copyright (c) 2007-2020 Cypress Semiconductor.  All rights reserved.
  14:Generated_Source\PSoC4/cyfitter_cfg.c **** * You may use this file only in accordance with the license, terms, conditions, 
  15:Generated_Source\PSoC4/cyfitter_cfg.c **** * disclaimers, and limitations in the end user license agreement accompanying 
  16:Generated_Source\PSoC4/cyfitter_cfg.c **** * the software package with which this file was provided.
  17:Generated_Source\PSoC4/cyfitter_cfg.c **** ********************************************************************************/
  18:Generated_Source\PSoC4/cyfitter_cfg.c **** 
  19:Generated_Source\PSoC4/cyfitter_cfg.c **** #include <string.h>
  20:Generated_Source\PSoC4/cyfitter_cfg.c **** #include "cytypes.h"
  21:Generated_Source\PSoC4/cyfitter_cfg.c **** #include "cydevice_trm.h"
  22:Generated_Source\PSoC4/cyfitter_cfg.c **** #include "cyfitter.h"
  23:Generated_Source\PSoC4/cyfitter_cfg.c **** #include "CyLib.h"
  24:Generated_Source\PSoC4/cyfitter_cfg.c **** #include "CyLFClk.h"
  25:Generated_Source\PSoC4/cyfitter_cfg.c **** #include "cyfitter_cfg.h"
  26:Generated_Source\PSoC4/cyfitter_cfg.c **** #include "cyapicallbacks.h"
  27:Generated_Source\PSoC4/cyfitter_cfg.c **** 
  28:Generated_Source\PSoC4/cyfitter_cfg.c **** 
  29:Generated_Source\PSoC4/cyfitter_cfg.c **** #if defined(__GNUC__) || defined(__ARMCC_VERSION)
  30:Generated_Source\PSoC4/cyfitter_cfg.c ****     #define CYPACKED 
  31:Generated_Source\PSoC4/cyfitter_cfg.c ****     #define CYPACKED_ATTR __attribute__ ((packed))
ARM GAS  C:\Users\becca\AppData\Local\Temp\ccAhbELO.s 			page 2


  32:Generated_Source\PSoC4/cyfitter_cfg.c ****     #define CYALIGNED __attribute__ ((aligned))
  33:Generated_Source\PSoC4/cyfitter_cfg.c ****     #define CY_CFG_UNUSED __attribute__ ((unused))
  34:Generated_Source\PSoC4/cyfitter_cfg.c ****     #ifndef CY_CFG_SECTION
  35:Generated_Source\PSoC4/cyfitter_cfg.c ****         #define CY_CFG_SECTION __attribute__ ((section(".psocinit")))
  36:Generated_Source\PSoC4/cyfitter_cfg.c ****     #endif
  37:Generated_Source\PSoC4/cyfitter_cfg.c ****     
  38:Generated_Source\PSoC4/cyfitter_cfg.c ****     #if defined(__ARMCC_VERSION)
  39:Generated_Source\PSoC4/cyfitter_cfg.c ****         #define CY_CFG_MEMORY_BARRIER() __memory_changed()
  40:Generated_Source\PSoC4/cyfitter_cfg.c ****     #else
  41:Generated_Source\PSoC4/cyfitter_cfg.c ****         #define CY_CFG_MEMORY_BARRIER() __sync_synchronize()
  42:Generated_Source\PSoC4/cyfitter_cfg.c ****     #endif
  43:Generated_Source\PSoC4/cyfitter_cfg.c ****     
  44:Generated_Source\PSoC4/cyfitter_cfg.c **** #elif defined(__ICCARM__)
  45:Generated_Source\PSoC4/cyfitter_cfg.c ****     #include <intrinsics.h>
  46:Generated_Source\PSoC4/cyfitter_cfg.c **** 
  47:Generated_Source\PSoC4/cyfitter_cfg.c ****     #define CYPACKED __packed
  48:Generated_Source\PSoC4/cyfitter_cfg.c ****     #define CYPACKED_ATTR 
  49:Generated_Source\PSoC4/cyfitter_cfg.c ****     #define CYALIGNED _Pragma("data_alignment=4")
  50:Generated_Source\PSoC4/cyfitter_cfg.c ****     #define CY_CFG_UNUSED _Pragma("diag_suppress=Pe177")
  51:Generated_Source\PSoC4/cyfitter_cfg.c ****     #define CY_CFG_SECTION _Pragma("location=\".psocinit\"")
  52:Generated_Source\PSoC4/cyfitter_cfg.c ****     
  53:Generated_Source\PSoC4/cyfitter_cfg.c ****     #define CY_CFG_MEMORY_BARRIER() __DMB()
  54:Generated_Source\PSoC4/cyfitter_cfg.c ****     
  55:Generated_Source\PSoC4/cyfitter_cfg.c **** #else
  56:Generated_Source\PSoC4/cyfitter_cfg.c ****     #error Unsupported toolchain
  57:Generated_Source\PSoC4/cyfitter_cfg.c **** #endif
  58:Generated_Source\PSoC4/cyfitter_cfg.c **** 
  59:Generated_Source\PSoC4/cyfitter_cfg.c **** #ifndef CYCODE
  60:Generated_Source\PSoC4/cyfitter_cfg.c ****     #define CYCODE
  61:Generated_Source\PSoC4/cyfitter_cfg.c **** #endif
  62:Generated_Source\PSoC4/cyfitter_cfg.c **** #ifndef CYDATA
  63:Generated_Source\PSoC4/cyfitter_cfg.c ****     #define CYDATA
  64:Generated_Source\PSoC4/cyfitter_cfg.c **** #endif
  65:Generated_Source\PSoC4/cyfitter_cfg.c **** #ifndef CYFAR
  66:Generated_Source\PSoC4/cyfitter_cfg.c ****     #define CYFAR
  67:Generated_Source\PSoC4/cyfitter_cfg.c **** #endif
  68:Generated_Source\PSoC4/cyfitter_cfg.c **** #ifndef CYXDATA
  69:Generated_Source\PSoC4/cyfitter_cfg.c ****     #define CYXDATA
  70:Generated_Source\PSoC4/cyfitter_cfg.c **** #endif
  71:Generated_Source\PSoC4/cyfitter_cfg.c **** 
  72:Generated_Source\PSoC4/cyfitter_cfg.c **** 
  73:Generated_Source\PSoC4/cyfitter_cfg.c **** CY_CFG_UNUSED
  74:Generated_Source\PSoC4/cyfitter_cfg.c **** static void CYMEMZERO(void *s, size_t n);
  75:Generated_Source\PSoC4/cyfitter_cfg.c **** CY_CFG_UNUSED
  76:Generated_Source\PSoC4/cyfitter_cfg.c **** static void CYMEMZERO(void *s, size_t n)
  77:Generated_Source\PSoC4/cyfitter_cfg.c **** {
  78:Generated_Source\PSoC4/cyfitter_cfg.c **** 	(void)memset(s, 0, n);
  79:Generated_Source\PSoC4/cyfitter_cfg.c **** }
  80:Generated_Source\PSoC4/cyfitter_cfg.c **** CY_CFG_UNUSED
  81:Generated_Source\PSoC4/cyfitter_cfg.c **** static void CYCONFIGCPY(void *dest, const void *src, size_t n);
  82:Generated_Source\PSoC4/cyfitter_cfg.c **** CY_CFG_UNUSED
  83:Generated_Source\PSoC4/cyfitter_cfg.c **** static void CYCONFIGCPY(void *dest, const void *src, size_t n)
  84:Generated_Source\PSoC4/cyfitter_cfg.c **** {
  85:Generated_Source\PSoC4/cyfitter_cfg.c **** 	(void)memcpy(dest, src, n);
  86:Generated_Source\PSoC4/cyfitter_cfg.c **** }
  87:Generated_Source\PSoC4/cyfitter_cfg.c **** CY_CFG_UNUSED
  88:Generated_Source\PSoC4/cyfitter_cfg.c **** static void CYCONFIGCPYCODE(void *dest, const void *src, size_t n);
ARM GAS  C:\Users\becca\AppData\Local\Temp\ccAhbELO.s 			page 3


  89:Generated_Source\PSoC4/cyfitter_cfg.c **** CY_CFG_UNUSED
  90:Generated_Source\PSoC4/cyfitter_cfg.c **** static void CYCONFIGCPYCODE(void *dest, const void *src, size_t n)
  91:Generated_Source\PSoC4/cyfitter_cfg.c **** {
  92:Generated_Source\PSoC4/cyfitter_cfg.c **** 	(void)memcpy(dest, src, n);
  93:Generated_Source\PSoC4/cyfitter_cfg.c **** }
  94:Generated_Source\PSoC4/cyfitter_cfg.c **** 
  95:Generated_Source\PSoC4/cyfitter_cfg.c **** 
  96:Generated_Source\PSoC4/cyfitter_cfg.c **** 
  97:Generated_Source\PSoC4/cyfitter_cfg.c **** 
  98:Generated_Source\PSoC4/cyfitter_cfg.c **** /* Clock startup error codes                                                   */
  99:Generated_Source\PSoC4/cyfitter_cfg.c **** #define CYCLOCKSTART_NO_ERROR    0u
 100:Generated_Source\PSoC4/cyfitter_cfg.c **** #define CYCLOCKSTART_XTAL_ERROR  1u
 101:Generated_Source\PSoC4/cyfitter_cfg.c **** #define CYCLOCKSTART_32KHZ_ERROR 2u
 102:Generated_Source\PSoC4/cyfitter_cfg.c **** #define CYCLOCKSTART_PLL_ERROR   3u
 103:Generated_Source\PSoC4/cyfitter_cfg.c **** #define CYCLOCKSTART_FLL_ERROR   4u
 104:Generated_Source\PSoC4/cyfitter_cfg.c **** #define CYCLOCKSTART_WCO_ERROR   5u
 105:Generated_Source\PSoC4/cyfitter_cfg.c **** 
 106:Generated_Source\PSoC4/cyfitter_cfg.c **** 
 107:Generated_Source\PSoC4/cyfitter_cfg.c **** #ifdef CY_NEED_CYCLOCKSTARTUPERROR
 108:Generated_Source\PSoC4/cyfitter_cfg.c **** /*******************************************************************************
 109:Generated_Source\PSoC4/cyfitter_cfg.c **** * Function Name: CyClockStartupError
 110:Generated_Source\PSoC4/cyfitter_cfg.c **** ********************************************************************************
 111:Generated_Source\PSoC4/cyfitter_cfg.c **** * Summary:
 112:Generated_Source\PSoC4/cyfitter_cfg.c **** *  If an error is encountered during clock configuration (crystal startup error,
 113:Generated_Source\PSoC4/cyfitter_cfg.c **** *  PLL lock error, etc.), the system will end up here.  Unless reimplemented by
 114:Generated_Source\PSoC4/cyfitter_cfg.c **** *  the customer, this function will stop in an infinite loop.
 115:Generated_Source\PSoC4/cyfitter_cfg.c **** *
 116:Generated_Source\PSoC4/cyfitter_cfg.c **** * Parameters:
 117:Generated_Source\PSoC4/cyfitter_cfg.c **** *   void
 118:Generated_Source\PSoC4/cyfitter_cfg.c **** *
 119:Generated_Source\PSoC4/cyfitter_cfg.c **** * Return:
 120:Generated_Source\PSoC4/cyfitter_cfg.c **** *   void
 121:Generated_Source\PSoC4/cyfitter_cfg.c **** *
 122:Generated_Source\PSoC4/cyfitter_cfg.c **** *******************************************************************************/
 123:Generated_Source\PSoC4/cyfitter_cfg.c **** CY_CFG_UNUSED
 124:Generated_Source\PSoC4/cyfitter_cfg.c **** static void CyClockStartupError(uint8 errorCode);
 125:Generated_Source\PSoC4/cyfitter_cfg.c **** CY_CFG_UNUSED
 126:Generated_Source\PSoC4/cyfitter_cfg.c **** static void CyClockStartupError(uint8 errorCode)
 127:Generated_Source\PSoC4/cyfitter_cfg.c **** {
 128:Generated_Source\PSoC4/cyfitter_cfg.c ****     /* To remove the compiler warning if errorCode not used.                */
 129:Generated_Source\PSoC4/cyfitter_cfg.c ****     errorCode = errorCode;
 130:Generated_Source\PSoC4/cyfitter_cfg.c **** 
 131:Generated_Source\PSoC4/cyfitter_cfg.c ****     /* If we have a clock startup error (bad MHz crystal, PLL lock, etc.),  */
 132:Generated_Source\PSoC4/cyfitter_cfg.c ****     /* we will end up here to allow the customer to implement something to  */
 133:Generated_Source\PSoC4/cyfitter_cfg.c ****     /* deal with the clock condition.                                       */
 134:Generated_Source\PSoC4/cyfitter_cfg.c **** 
 135:Generated_Source\PSoC4/cyfitter_cfg.c **** #ifdef CY_CFG_CLOCK_STARTUP_ERROR_CALLBACK
 136:Generated_Source\PSoC4/cyfitter_cfg.c ****     CY_CFG_Clock_Startup_ErrorCallback();
 137:Generated_Source\PSoC4/cyfitter_cfg.c **** #else
 138:Generated_Source\PSoC4/cyfitter_cfg.c ****     /*  If not using CY_CFG_CLOCK_STARTUP_ERROR_CALLBACK, place your clock startup code here. */
 139:Generated_Source\PSoC4/cyfitter_cfg.c ****     /* `#START CyClockStartupError` */
 140:Generated_Source\PSoC4/cyfitter_cfg.c **** 
 141:Generated_Source\PSoC4/cyfitter_cfg.c **** 
 142:Generated_Source\PSoC4/cyfitter_cfg.c **** 
 143:Generated_Source\PSoC4/cyfitter_cfg.c ****     /* `#END` */
 144:Generated_Source\PSoC4/cyfitter_cfg.c **** 
 145:Generated_Source\PSoC4/cyfitter_cfg.c ****     while(1) {}
ARM GAS  C:\Users\becca\AppData\Local\Temp\ccAhbELO.s 			page 4


 146:Generated_Source\PSoC4/cyfitter_cfg.c **** #endif /* CY_CFG_CLOCK_STARTUP_ERROR_CALLBACK */
 147:Generated_Source\PSoC4/cyfitter_cfg.c **** }
 148:Generated_Source\PSoC4/cyfitter_cfg.c **** #endif
 149:Generated_Source\PSoC4/cyfitter_cfg.c **** 
 150:Generated_Source\PSoC4/cyfitter_cfg.c **** #define CY_CFG_BASE_ADDR_COUNT 13u
 151:Generated_Source\PSoC4/cyfitter_cfg.c **** CYPACKED typedef struct
 152:Generated_Source\PSoC4/cyfitter_cfg.c **** {
 153:Generated_Source\PSoC4/cyfitter_cfg.c **** 	uint8 offset;
 154:Generated_Source\PSoC4/cyfitter_cfg.c **** 	uint8 value;
 155:Generated_Source\PSoC4/cyfitter_cfg.c **** } CYPACKED_ATTR cy_cfg_addrvalue_t;
 156:Generated_Source\PSoC4/cyfitter_cfg.c **** 
 157:Generated_Source\PSoC4/cyfitter_cfg.c **** 
 158:Generated_Source\PSoC4/cyfitter_cfg.c **** 
 159:Generated_Source\PSoC4/cyfitter_cfg.c **** /*******************************************************************************
 160:Generated_Source\PSoC4/cyfitter_cfg.c **** * Function Name: cfg_write_bytes32
 161:Generated_Source\PSoC4/cyfitter_cfg.c **** ********************************************************************************
 162:Generated_Source\PSoC4/cyfitter_cfg.c **** * Summary:
 163:Generated_Source\PSoC4/cyfitter_cfg.c **** *  This function is used for setting up the chip configuration areas that
 164:Generated_Source\PSoC4/cyfitter_cfg.c **** *  contain relatively sparse data.
 165:Generated_Source\PSoC4/cyfitter_cfg.c **** *
 166:Generated_Source\PSoC4/cyfitter_cfg.c **** * Parameters:
 167:Generated_Source\PSoC4/cyfitter_cfg.c **** *   void
 168:Generated_Source\PSoC4/cyfitter_cfg.c **** *
 169:Generated_Source\PSoC4/cyfitter_cfg.c **** * Return:
 170:Generated_Source\PSoC4/cyfitter_cfg.c **** *   void
 171:Generated_Source\PSoC4/cyfitter_cfg.c **** *
 172:Generated_Source\PSoC4/cyfitter_cfg.c **** *******************************************************************************/
 173:Generated_Source\PSoC4/cyfitter_cfg.c **** static void cfg_write_bytes32(const uint32 addr_table[], const cy_cfg_addrvalue_t data_table[]);
 174:Generated_Source\PSoC4/cyfitter_cfg.c **** static void cfg_write_bytes32(const uint32 addr_table[], const cy_cfg_addrvalue_t data_table[])
 175:Generated_Source\PSoC4/cyfitter_cfg.c **** {
  27              		.loc 1 175 0
  28              		.cfi_startproc
  29              		@ args = 0, pretend = 0, frame = 0
  30              		@ frame_needed = 0, uses_anonymous_args = 0
  31              	.LVL0:
  32 0000 F0B5     		push	{r4, r5, r6, r7, lr}
  33              		.cfi_def_cfa_offset 20
  34              		.cfi_offset 4, -20
  35              		.cfi_offset 5, -16
  36              		.cfi_offset 6, -12
  37              		.cfi_offset 7, -8
  38              		.cfi_offset 14, -4
  39              	.LVL1:
 176:Generated_Source\PSoC4/cyfitter_cfg.c **** 	/* For 32-bit little-endian architectures */
 177:Generated_Source\PSoC4/cyfitter_cfg.c **** 	uint32 i, j = 0u;
  40              		.loc 1 177 0
  41 0002 0025     		movs	r5, #0
 178:Generated_Source\PSoC4/cyfitter_cfg.c **** 	for (i = 0u; i < CY_CFG_BASE_ADDR_COUNT; i++)
  42              		.loc 1 178 0
  43 0004 0027     		movs	r7, #0
  44 0006 11E0     		b	.L2
  45              	.LVL2:
  46              	.L5:
  47              	.LBB2:
 179:Generated_Source\PSoC4/cyfitter_cfg.c **** 	{
 180:Generated_Source\PSoC4/cyfitter_cfg.c **** 		uint32 baseAddr = addr_table[i];
  48              		.loc 1 180 0
ARM GAS  C:\Users\becca\AppData\Local\Temp\ccAhbELO.s 			page 5


  49 0008 BB00     		lsls	r3, r7, #2
  50 000a C658     		ldr	r6, [r0, r3]
  51              	.LVL3:
 181:Generated_Source\PSoC4/cyfitter_cfg.c **** 		uint8 count = (uint8)baseAddr;
  52              		.loc 1 181 0
  53 000c F3B2     		uxtb	r3, r6
  54              	.LVL4:
 182:Generated_Source\PSoC4/cyfitter_cfg.c **** 		baseAddr &= 0xFFFFFF00u;
  55              		.loc 1 182 0
  56 000e FF22     		movs	r2, #255
  57 0010 9643     		bics	r6, r2
  58              	.LVL5:
 183:Generated_Source\PSoC4/cyfitter_cfg.c **** 		while (count != 0u)
  59              		.loc 1 183 0
  60 0012 08E0     		b	.L3
  61              	.L4:
 184:Generated_Source\PSoC4/cyfitter_cfg.c **** 		{
 185:Generated_Source\PSoC4/cyfitter_cfg.c **** 			CY_SET_REG8((void *)(baseAddr + data_table[j].offset), data_table[j].value);
  62              		.loc 1 185 0
  63 0014 6A00     		lsls	r2, r5, #1
  64 0016 8A18     		adds	r2, r1, r2
  65 0018 1478     		ldrb	r4, [r2]
  66 001a A419     		adds	r4, r4, r6
  67 001c 5278     		ldrb	r2, [r2, #1]
  68 001e 2270     		strb	r2, [r4]
 186:Generated_Source\PSoC4/cyfitter_cfg.c **** 			j++;
  69              		.loc 1 186 0
  70 0020 0135     		adds	r5, r5, #1
  71              	.LVL6:
 187:Generated_Source\PSoC4/cyfitter_cfg.c **** 			count--;
  72              		.loc 1 187 0
  73 0022 013B     		subs	r3, r3, #1
  74              	.LVL7:
  75 0024 DBB2     		uxtb	r3, r3
  76              	.LVL8:
  77              	.L3:
 183:Generated_Source\PSoC4/cyfitter_cfg.c **** 		{
  78              		.loc 1 183 0
  79 0026 002B     		cmp	r3, #0
  80 0028 F4D1     		bne	.L4
  81              	.LBE2:
 178:Generated_Source\PSoC4/cyfitter_cfg.c **** 	{
  82              		.loc 1 178 0 discriminator 2
  83 002a 0137     		adds	r7, r7, #1
  84              	.LVL9:
  85              	.L2:
 178:Generated_Source\PSoC4/cyfitter_cfg.c **** 	{
  86              		.loc 1 178 0 is_stmt 0 discriminator 1
  87 002c 0C2F     		cmp	r7, #12
  88 002e EBD9     		bls	.L5
 188:Generated_Source\PSoC4/cyfitter_cfg.c **** 		}
 189:Generated_Source\PSoC4/cyfitter_cfg.c **** 	}
 190:Generated_Source\PSoC4/cyfitter_cfg.c **** }
  89              		.loc 1 190 0 is_stmt 1
  90              		@ sp needed
  91              	.LVL10:
  92              	.LVL11:
ARM GAS  C:\Users\becca\AppData\Local\Temp\ccAhbELO.s 			page 6


  93 0030 F0BD     		pop	{r4, r5, r6, r7, pc}
  94              		.cfi_endproc
  95              	.LFE4:
  96              		.size	cfg_write_bytes32, .-cfg_write_bytes32
  97 0032 C046     		.section	.text.CYMEMZERO,"ax",%progbits
  98              		.align	2
  99              		.code	16
 100              		.thumb_func
 101              		.type	CYMEMZERO, %function
 102              	CYMEMZERO:
 103              	.LFB1:
  77:Generated_Source\PSoC4/cyfitter_cfg.c **** 	(void)memset(s, 0, n);
 104              		.loc 1 77 0
 105              		.cfi_startproc
 106              		@ args = 0, pretend = 0, frame = 0
 107              		@ frame_needed = 0, uses_anonymous_args = 0
 108              	.LVL12:
 109 0000 10B5     		push	{r4, lr}
 110              		.cfi_def_cfa_offset 8
 111              		.cfi_offset 4, -8
 112              		.cfi_offset 14, -4
 113 0002 0A00     		movs	r2, r1
  78:Generated_Source\PSoC4/cyfitter_cfg.c **** }
 114              		.loc 1 78 0
 115 0004 0021     		movs	r1, #0
 116              	.LVL13:
 117 0006 FFF7FEFF 		bl	memset
 118              	.LVL14:
  79:Generated_Source\PSoC4/cyfitter_cfg.c **** CY_CFG_UNUSED
 119              		.loc 1 79 0
 120              		@ sp needed
 121 000a 10BD     		pop	{r4, pc}
 122              		.cfi_endproc
 123              	.LFE1:
 124              		.size	CYMEMZERO, .-CYMEMZERO
 125              		.section	.psocinit,"ax",%progbits
 126              		.align	2
 127              		.code	16
 128              		.thumb_func
 129              		.type	ClockSetup, %function
 130              	ClockSetup:
 131              	.LFB5:
 191:Generated_Source\PSoC4/cyfitter_cfg.c **** 
 192:Generated_Source\PSoC4/cyfitter_cfg.c **** 
 193:Generated_Source\PSoC4/cyfitter_cfg.c **** /*******************************************************************************
 194:Generated_Source\PSoC4/cyfitter_cfg.c **** * Function Name: ClockSetup
 195:Generated_Source\PSoC4/cyfitter_cfg.c **** ********************************************************************************
 196:Generated_Source\PSoC4/cyfitter_cfg.c **** *
 197:Generated_Source\PSoC4/cyfitter_cfg.c **** * Summary:
 198:Generated_Source\PSoC4/cyfitter_cfg.c **** *   Performs the initialization of all of the clocks in the device based on the
 199:Generated_Source\PSoC4/cyfitter_cfg.c **** *   settings in the Clock tab of the DWR.  This includes enabling the requested
 200:Generated_Source\PSoC4/cyfitter_cfg.c **** *   clocks and setting the necessary dividers to produce the desired frequency. 
 201:Generated_Source\PSoC4/cyfitter_cfg.c **** *
 202:Generated_Source\PSoC4/cyfitter_cfg.c **** * Parameters:
 203:Generated_Source\PSoC4/cyfitter_cfg.c **** *   void
 204:Generated_Source\PSoC4/cyfitter_cfg.c **** *
 205:Generated_Source\PSoC4/cyfitter_cfg.c **** * Return:
ARM GAS  C:\Users\becca\AppData\Local\Temp\ccAhbELO.s 			page 7


 206:Generated_Source\PSoC4/cyfitter_cfg.c **** *   void
 207:Generated_Source\PSoC4/cyfitter_cfg.c **** *
 208:Generated_Source\PSoC4/cyfitter_cfg.c **** *******************************************************************************/
 209:Generated_Source\PSoC4/cyfitter_cfg.c **** static void ClockSetup(void);
 210:Generated_Source\PSoC4/cyfitter_cfg.c **** CY_CFG_SECTION
 211:Generated_Source\PSoC4/cyfitter_cfg.c **** static void ClockSetup(void)
 212:Generated_Source\PSoC4/cyfitter_cfg.c **** {
 132              		.loc 1 212 0
 133              		.cfi_startproc
 134              		@ args = 0, pretend = 0, frame = 0
 135              		@ frame_needed = 0, uses_anonymous_args = 0
 136 0000 10B5     		push	{r4, lr}
 137              		.cfi_def_cfa_offset 8
 138              		.cfi_offset 4, -8
 139              		.cfi_offset 14, -4
 213:Generated_Source\PSoC4/cyfitter_cfg.c **** 
 214:Generated_Source\PSoC4/cyfitter_cfg.c **** 	/* Set Flash Cycles based on max possible frequency in case a glitch occurs during ClockSetup(). *
 215:Generated_Source\PSoC4/cyfitter_cfg.c **** 	CY_SET_REG32((void CYXDATA *)(CYREG_CPUSS_FLASH_CTL), (0x0012u));
 140              		.loc 1 215 0
 141 0002 1222     		movs	r2, #18
 142 0004 304B     		ldr	r3, .L8
 143 0006 1A60     		str	r2, [r3]
 216:Generated_Source\PSoC4/cyfitter_cfg.c **** 
 217:Generated_Source\PSoC4/cyfitter_cfg.c **** 	/* Start the WCO */
 218:Generated_Source\PSoC4/cyfitter_cfg.c **** 	CySysClkWcoStart();
 144              		.loc 1 218 0
 145 0008 FFF7FEFF 		bl	CySysClkWcoStart
 146              	.LVL15:
 219:Generated_Source\PSoC4/cyfitter_cfg.c **** 
 220:Generated_Source\PSoC4/cyfitter_cfg.c **** 	/* Setup and trim IMO based on desired frequency. */
 221:Generated_Source\PSoC4/cyfitter_cfg.c **** 	CySysClkWriteImoFreq(48u);
 147              		.loc 1 221 0
 148 000c 3020     		movs	r0, #48
 149 000e FFF7FEFF 		bl	CySysClkWriteImoFreq
 150              	.LVL16:
 222:Generated_Source\PSoC4/cyfitter_cfg.c **** 	/* CYDEV_CLK_ILO_CONFIG Starting address: CYDEV_CLK_ILO_CONFIG */
 223:Generated_Source\PSoC4/cyfitter_cfg.c **** 	CY_SET_REG32((void *)(CYREG_CLK_ILO_CONFIG), 0x80000006u);
 151              		.loc 1 223 0
 152 0012 2E4A     		ldr	r2, .L8+4
 153 0014 2E4B     		ldr	r3, .L8+8
 154 0016 1A60     		str	r2, [r3]
 224:Generated_Source\PSoC4/cyfitter_cfg.c **** 
 225:Generated_Source\PSoC4/cyfitter_cfg.c **** 
 226:Generated_Source\PSoC4/cyfitter_cfg.c **** 	/* Setup phase aligned clocks */
 227:Generated_Source\PSoC4/cyfitter_cfg.c **** 	CY_SET_REG32((void *)CYREG_PERI_DIV_16_CTL0, 0x00000000u);
 155              		.loc 1 227 0
 156 0018 0024     		movs	r4, #0
 157 001a 2E4B     		ldr	r3, .L8+12
 158 001c 1C60     		str	r4, [r3]
 228:Generated_Source\PSoC4/cyfitter_cfg.c **** 	CY_SET_REG32((void *)CYREG_PERI_DIV_CMD, 0x8000FF40u);
 159              		.loc 1 228 0
 160 001e 2E4B     		ldr	r3, .L8+16
 161 0020 2E4A     		ldr	r2, .L8+20
 162 0022 1A60     		str	r2, [r3]
 229:Generated_Source\PSoC4/cyfitter_cfg.c **** 	CY_SET_REG32((void *)CYREG_PERI_DIV_16_CTL6, 0x00002700u);
 163              		.loc 1 229 0
 164 0024 9C22     		movs	r2, #156
ARM GAS  C:\Users\becca\AppData\Local\Temp\ccAhbELO.s 			page 8


 165 0026 9201     		lsls	r2, r2, #6
 166 0028 2D49     		ldr	r1, .L8+24
 167 002a 0A60     		str	r2, [r1]
 230:Generated_Source\PSoC4/cyfitter_cfg.c **** 	CY_SET_REG32((void *)CYREG_PERI_DIV_CMD, 0x8000FF46u);
 168              		.loc 1 230 0
 169 002c 2D49     		ldr	r1, .L8+28
 170 002e 1960     		str	r1, [r3]
 231:Generated_Source\PSoC4/cyfitter_cfg.c **** 	CY_SET_REG32((void *)CYREG_PERI_DIV_16_CTL7, 0x00002700u);
 171              		.loc 1 231 0
 172 0030 2D49     		ldr	r1, .L8+32
 173 0032 0A60     		str	r2, [r1]
 232:Generated_Source\PSoC4/cyfitter_cfg.c **** 	CY_SET_REG32((void *)CYREG_PERI_DIV_CMD, 0x8000FF47u);
 174              		.loc 1 232 0
 175 0034 2D4A     		ldr	r2, .L8+36
 176 0036 1A60     		str	r2, [r3]
 233:Generated_Source\PSoC4/cyfitter_cfg.c **** 	CY_SET_REG32((void *)CYREG_PERI_DIV_16_CTL1, 0x0000FE00u);
 177              		.loc 1 233 0
 178 0038 FE22     		movs	r2, #254
 179 003a 1202     		lsls	r2, r2, #8
 180 003c 2C49     		ldr	r1, .L8+40
 181 003e 0A60     		str	r2, [r1]
 234:Generated_Source\PSoC4/cyfitter_cfg.c **** 	CY_SET_REG32((void *)CYREG_PERI_DIV_CMD, 0x8000FF41u);
 182              		.loc 1 234 0
 183 0040 2C49     		ldr	r1, .L8+44
 184 0042 1960     		str	r1, [r3]
 235:Generated_Source\PSoC4/cyfitter_cfg.c **** 	CY_SET_REG32((void *)CYREG_PERI_DIV_16_CTL2, 0x0000FE00u);
 185              		.loc 1 235 0
 186 0044 2C49     		ldr	r1, .L8+48
 187 0046 0A60     		str	r2, [r1]
 236:Generated_Source\PSoC4/cyfitter_cfg.c **** 	CY_SET_REG32((void *)CYREG_PERI_DIV_CMD, 0x8000FF42u);
 188              		.loc 1 236 0
 189 0048 2C4A     		ldr	r2, .L8+52
 190 004a 1A60     		str	r2, [r3]
 237:Generated_Source\PSoC4/cyfitter_cfg.c **** 	CY_SET_REG32((void *)CYREG_PERI_DIV_16_CTL4, 0x00001800u);
 191              		.loc 1 237 0
 192 004c C021     		movs	r1, #192
 193 004e 4901     		lsls	r1, r1, #5
 194 0050 2B4A     		ldr	r2, .L8+56
 195 0052 1160     		str	r1, [r2]
 238:Generated_Source\PSoC4/cyfitter_cfg.c **** 	CY_SET_REG32((void *)CYREG_PERI_DIV_CMD, 0x8000FF44u);
 196              		.loc 1 238 0
 197 0054 2B4A     		ldr	r2, .L8+60
 198 0056 1A60     		str	r2, [r3]
 239:Generated_Source\PSoC4/cyfitter_cfg.c **** 	CY_SET_REG32((void *)CYREG_PERI_DIV_16_CTL3, 0x00000100u);
 199              		.loc 1 239 0
 200 0058 8021     		movs	r1, #128
 201 005a 4900     		lsls	r1, r1, #1
 202 005c 2A4A     		ldr	r2, .L8+64
 203 005e 1160     		str	r1, [r2]
 240:Generated_Source\PSoC4/cyfitter_cfg.c **** 	CY_SET_REG32((void *)CYREG_PERI_DIV_CMD, 0x8000FF43u);
 204              		.loc 1 240 0
 205 0060 2A4A     		ldr	r2, .L8+68
 206 0062 1A60     		str	r2, [r3]
 241:Generated_Source\PSoC4/cyfitter_cfg.c **** 	CY_SET_REG32((void *)CYREG_PERI_DIV_16_CTL5, 0x00001C00u);
 207              		.loc 1 241 0
 208 0064 E021     		movs	r1, #224
 209 0066 4901     		lsls	r1, r1, #5
ARM GAS  C:\Users\becca\AppData\Local\Temp\ccAhbELO.s 			page 9


 210 0068 294A     		ldr	r2, .L8+72
 211 006a 1160     		str	r1, [r2]
 242:Generated_Source\PSoC4/cyfitter_cfg.c **** 	CY_SET_REG32((void *)CYREG_PERI_DIV_CMD, 0x8000FF45u);
 212              		.loc 1 242 0
 213 006c 294A     		ldr	r2, .L8+76
 214 006e 1A60     		str	r2, [r3]
 243:Generated_Source\PSoC4/cyfitter_cfg.c **** 
 244:Generated_Source\PSoC4/cyfitter_cfg.c **** 	/* CYDEV_CLK_IMO_CONFIG Starting address: CYDEV_CLK_IMO_CONFIG */
 245:Generated_Source\PSoC4/cyfitter_cfg.c **** 	CY_SET_REG32((void *)(CYREG_CLK_IMO_CONFIG), 0x82000000u);
 215              		.loc 1 245 0
 216 0070 8222     		movs	r2, #130
 217 0072 1206     		lsls	r2, r2, #24
 218 0074 284B     		ldr	r3, .L8+80
 219 0076 1A60     		str	r2, [r3]
 246:Generated_Source\PSoC4/cyfitter_cfg.c **** 
 247:Generated_Source\PSoC4/cyfitter_cfg.c **** 	/* CYDEV_CLK_SELECT Starting address: CYDEV_CLK_SELECT */
 248:Generated_Source\PSoC4/cyfitter_cfg.c **** 	CY_SET_REG32((void *)(CYREG_CLK_SELECT), 0x00040249u);
 220              		.loc 1 248 0
 221 0078 284A     		ldr	r2, .L8+84
 222 007a 294B     		ldr	r3, .L8+88
 223 007c 1A60     		str	r2, [r3]
 249:Generated_Source\PSoC4/cyfitter_cfg.c **** 
 250:Generated_Source\PSoC4/cyfitter_cfg.c **** 	/* CYDEV_PERI_PCLK_CTL14 Starting address: CYDEV_PERI_PCLK_CTL14 */
 251:Generated_Source\PSoC4/cyfitter_cfg.c **** 	CY_SET_REG32((void *)(CYREG_PERI_PCLK_CTL14), 0x00000046u);
 224              		.loc 1 251 0
 225 007e 4623     		movs	r3, #70
 226 0080 284A     		ldr	r2, .L8+92
 227 0082 1360     		str	r3, [r2]
 252:Generated_Source\PSoC4/cyfitter_cfg.c **** 
 253:Generated_Source\PSoC4/cyfitter_cfg.c **** 	/* CYDEV_PERI_PCLK_CTL13 Starting address: CYDEV_PERI_PCLK_CTL13 */
 254:Generated_Source\PSoC4/cyfitter_cfg.c **** 	CY_SET_REG32((void *)(CYREG_PERI_PCLK_CTL13), 0x00000046u);
 228              		.loc 1 254 0
 229 0084 284A     		ldr	r2, .L8+96
 230 0086 1360     		str	r3, [r2]
 255:Generated_Source\PSoC4/cyfitter_cfg.c **** 
 256:Generated_Source\PSoC4/cyfitter_cfg.c **** 	/* CYDEV_PERI_PCLK_CTL12 Starting address: CYDEV_PERI_PCLK_CTL12 */
 257:Generated_Source\PSoC4/cyfitter_cfg.c **** 	CY_SET_REG32((void *)(CYREG_PERI_PCLK_CTL12), 0x00000046u);
 231              		.loc 1 257 0
 232 0088 284A     		ldr	r2, .L8+100
 233 008a 1360     		str	r3, [r2]
 258:Generated_Source\PSoC4/cyfitter_cfg.c **** 
 259:Generated_Source\PSoC4/cyfitter_cfg.c **** 	/* CYDEV_PERI_PCLK_CTL11 Starting address: CYDEV_PERI_PCLK_CTL11 */
 260:Generated_Source\PSoC4/cyfitter_cfg.c **** 	CY_SET_REG32((void *)(CYREG_PERI_PCLK_CTL11), 0x00000046u);
 234              		.loc 1 260 0
 235 008c 284A     		ldr	r2, .L8+104
 236 008e 1360     		str	r3, [r2]
 261:Generated_Source\PSoC4/cyfitter_cfg.c **** 
 262:Generated_Source\PSoC4/cyfitter_cfg.c **** 	/* CYDEV_PERI_PCLK_CTL10 Starting address: CYDEV_PERI_PCLK_CTL10 */
 263:Generated_Source\PSoC4/cyfitter_cfg.c **** 	CY_SET_REG32((void *)(CYREG_PERI_PCLK_CTL10), 0x00000047u);
 237              		.loc 1 263 0
 238 0090 4722     		movs	r2, #71
 239 0092 284B     		ldr	r3, .L8+108
 240 0094 1A60     		str	r2, [r3]
 264:Generated_Source\PSoC4/cyfitter_cfg.c **** 
 265:Generated_Source\PSoC4/cyfitter_cfg.c **** 	/* CYDEV_PERI_PCLK_CTL7 Starting address: CYDEV_PERI_PCLK_CTL7 */
 266:Generated_Source\PSoC4/cyfitter_cfg.c **** 	CY_SET_REG32((void *)(CYREG_PERI_PCLK_CTL7), 0x00000041u);
 241              		.loc 1 266 0
ARM GAS  C:\Users\becca\AppData\Local\Temp\ccAhbELO.s 			page 10


 242 0096 063A     		subs	r2, r2, #6
 243 0098 274B     		ldr	r3, .L8+112
 244 009a 1A60     		str	r2, [r3]
 267:Generated_Source\PSoC4/cyfitter_cfg.c **** 
 268:Generated_Source\PSoC4/cyfitter_cfg.c **** 	/* CYDEV_PERI_PCLK_CTL6 Starting address: CYDEV_PERI_PCLK_CTL6 */
 269:Generated_Source\PSoC4/cyfitter_cfg.c **** 	CY_SET_REG32((void *)(CYREG_PERI_PCLK_CTL6), 0x00000042u);
 245              		.loc 1 269 0
 246 009c 0132     		adds	r2, r2, #1
 247 009e 274B     		ldr	r3, .L8+116
 248 00a0 1A60     		str	r2, [r3]
 270:Generated_Source\PSoC4/cyfitter_cfg.c **** 
 271:Generated_Source\PSoC4/cyfitter_cfg.c **** 	/* CYDEV_PERI_PCLK_CTL4 Starting address: CYDEV_PERI_PCLK_CTL4 */
 272:Generated_Source\PSoC4/cyfitter_cfg.c **** 	CY_SET_REG32((void *)(CYREG_PERI_PCLK_CTL4), 0x00000044u);
 249              		.loc 1 272 0
 250 00a2 0232     		adds	r2, r2, #2
 251 00a4 264B     		ldr	r3, .L8+120
 252 00a6 1A60     		str	r2, [r3]
 273:Generated_Source\PSoC4/cyfitter_cfg.c **** 
 274:Generated_Source\PSoC4/cyfitter_cfg.c **** 	/* CYDEV_PERI_PCLK_CTL3 Starting address: CYDEV_PERI_PCLK_CTL3 */
 275:Generated_Source\PSoC4/cyfitter_cfg.c **** 	CY_SET_REG32((void *)(CYREG_PERI_PCLK_CTL3), 0x00000043u);
 253              		.loc 1 275 0
 254 00a8 013A     		subs	r2, r2, #1
 255 00aa 264B     		ldr	r3, .L8+124
 256 00ac 1A60     		str	r2, [r3]
 276:Generated_Source\PSoC4/cyfitter_cfg.c **** 
 277:Generated_Source\PSoC4/cyfitter_cfg.c **** 	/* CYDEV_PERI_PCLK_CTL2 Starting address: CYDEV_PERI_PCLK_CTL2 */
 278:Generated_Source\PSoC4/cyfitter_cfg.c **** 	CY_SET_REG32((void *)(CYREG_PERI_PCLK_CTL2), 0x00000045u);
 257              		.loc 1 278 0
 258 00ae 0232     		adds	r2, r2, #2
 259 00b0 254B     		ldr	r3, .L8+128
 260 00b2 1A60     		str	r2, [r3]
 279:Generated_Source\PSoC4/cyfitter_cfg.c **** 
 280:Generated_Source\PSoC4/cyfitter_cfg.c **** 	(void)CyIntSetVector(8u, &CySysWdtIsr);
 261              		.loc 1 280 0
 262 00b4 2549     		ldr	r1, .L8+132
 263 00b6 0820     		movs	r0, #8
 264 00b8 FFF7FEFF 		bl	CyIntSetVector
 265              	.LVL17:
 281:Generated_Source\PSoC4/cyfitter_cfg.c **** 	CyIntEnable(8u);
 266              		.loc 1 281 0
 267 00bc 0820     		movs	r0, #8
 268 00be FFF7FEFF 		bl	CyIntEnable
 269              	.LVL18:
 282:Generated_Source\PSoC4/cyfitter_cfg.c **** 	CY_SET_REG32((void *)(CYREG_WDT_CONFIG), 0x00000000u);
 270              		.loc 1 282 0
 271 00c2 234B     		ldr	r3, .L8+136
 272 00c4 1C60     		str	r4, [r3]
 283:Generated_Source\PSoC4/cyfitter_cfg.c **** }
 273              		.loc 1 283 0
 274              		@ sp needed
 275 00c6 10BD     		pop	{r4, pc}
 276              	.L9:
 277              		.align	2
 278              	.L8:
 279 00c8 30001040 		.word	1074790448
 280 00cc 06000080 		.word	-2147483642
 281 00d0 04010B40 		.word	1074462980
ARM GAS  C:\Users\becca\AppData\Local\Temp\ccAhbELO.s 			page 11


 282 00d4 00030140 		.word	1073808128
 283 00d8 00000140 		.word	1073807360
 284 00dc 40FF0080 		.word	-2147418304
 285 00e0 18030140 		.word	1073808152
 286 00e4 46FF0080 		.word	-2147418298
 287 00e8 1C030140 		.word	1073808156
 288 00ec 47FF0080 		.word	-2147418297
 289 00f0 04030140 		.word	1073808132
 290 00f4 41FF0080 		.word	-2147418303
 291 00f8 08030140 		.word	1073808136
 292 00fc 42FF0080 		.word	-2147418302
 293 0100 10030140 		.word	1073808144
 294 0104 44FF0080 		.word	-2147418300
 295 0108 0C030140 		.word	1073808140
 296 010c 43FF0080 		.word	-2147418301
 297 0110 14030140 		.word	1073808148
 298 0114 45FF0080 		.word	-2147418299
 299 0118 08010B40 		.word	1074462984
 300 011c 49020400 		.word	262729
 301 0120 00010B40 		.word	1074462976
 302 0124 38010140 		.word	1073807672
 303 0128 34010140 		.word	1073807668
 304 012c 30010140 		.word	1073807664
 305 0130 2C010140 		.word	1073807660
 306 0134 28010140 		.word	1073807656
 307 0138 1C010140 		.word	1073807644
 308 013c 18010140 		.word	1073807640
 309 0140 10010140 		.word	1073807632
 310 0144 0C010140 		.word	1073807628
 311 0148 08010140 		.word	1073807624
 312 014c 00000000 		.word	CySysWdtIsr
 313 0150 0C020B40 		.word	1074463244
 314              		.cfi_endproc
 315              	.LFE5:
 316              		.size	ClockSetup, .-ClockSetup
 317              		.section	.text.SetAnalogRoutingPumps,"ax",%progbits
 318              		.align	2
 319              		.global	SetAnalogRoutingPumps
 320              		.code	16
 321              		.thumb_func
 322              		.type	SetAnalogRoutingPumps, %function
 323              	SetAnalogRoutingPumps:
 324              	.LFB7:
 284:Generated_Source\PSoC4/cyfitter_cfg.c **** 
 285:Generated_Source\PSoC4/cyfitter_cfg.c **** 
 286:Generated_Source\PSoC4/cyfitter_cfg.c **** /* Analog API Functions */
 287:Generated_Source\PSoC4/cyfitter_cfg.c **** 
 288:Generated_Source\PSoC4/cyfitter_cfg.c **** 
 289:Generated_Source\PSoC4/cyfitter_cfg.c **** /*******************************************************************************
 290:Generated_Source\PSoC4/cyfitter_cfg.c **** * Function Name: AnalogSetDefault
 291:Generated_Source\PSoC4/cyfitter_cfg.c **** ********************************************************************************
 292:Generated_Source\PSoC4/cyfitter_cfg.c **** *
 293:Generated_Source\PSoC4/cyfitter_cfg.c **** * Summary:
 294:Generated_Source\PSoC4/cyfitter_cfg.c **** *  Sets up the analog portions of the chip to default values based on chip
 295:Generated_Source\PSoC4/cyfitter_cfg.c **** *  configuration options from the project.
 296:Generated_Source\PSoC4/cyfitter_cfg.c **** *
 297:Generated_Source\PSoC4/cyfitter_cfg.c **** * Parameters:
ARM GAS  C:\Users\becca\AppData\Local\Temp\ccAhbELO.s 			page 12


 298:Generated_Source\PSoC4/cyfitter_cfg.c **** *  void
 299:Generated_Source\PSoC4/cyfitter_cfg.c **** *
 300:Generated_Source\PSoC4/cyfitter_cfg.c **** * Return:
 301:Generated_Source\PSoC4/cyfitter_cfg.c **** *  void
 302:Generated_Source\PSoC4/cyfitter_cfg.c **** *
 303:Generated_Source\PSoC4/cyfitter_cfg.c **** *******************************************************************************/
 304:Generated_Source\PSoC4/cyfitter_cfg.c **** static void AnalogSetDefault(void);
 305:Generated_Source\PSoC4/cyfitter_cfg.c **** static void AnalogSetDefault(void)
 306:Generated_Source\PSoC4/cyfitter_cfg.c **** {
 307:Generated_Source\PSoC4/cyfitter_cfg.c **** 	CY_SET_XTND_REG32((void CYFAR *)CYREG_CTBM0_CTB_CTRL, 0x80000000u);
 308:Generated_Source\PSoC4/cyfitter_cfg.c **** 	CY_SET_XTND_REG32((void CYFAR *)CYREG_CTBM0_DFT_CTRL, 0x00000003u);
 309:Generated_Source\PSoC4/cyfitter_cfg.c **** 	CY_SET_XTND_REG32((void CYFAR *)CYREG_CTBM0_OA0_SW, 0x00044004u);
 310:Generated_Source\PSoC4/cyfitter_cfg.c **** 	CY_SET_XTND_REG32((void CYFAR *)CYREG_CTBM0_OA1_SW, 0x00044002u);
 311:Generated_Source\PSoC4/cyfitter_cfg.c **** 	CY_SET_XTND_REG32((void CYFAR *)CYREG_CTBM0_CTB_SW_HW_CTRL, 0x0000000Cu);
 312:Generated_Source\PSoC4/cyfitter_cfg.c **** 	CY_SET_XTND_REG32((void CYFAR *)CYREG_CTBM1_DFT_CTRL, 0x00000003u);
 313:Generated_Source\PSoC4/cyfitter_cfg.c **** 	CY_SET_XTND_REG32((void CYFAR *)CYREG_SAR_CTRL, 0x80000000u);
 314:Generated_Source\PSoC4/cyfitter_cfg.c **** 	CY_SET_XTND_REG32((void CYFAR *)CYREG_SAR_MUX_SWITCH0, 0x00408050u);
 315:Generated_Source\PSoC4/cyfitter_cfg.c **** 	CY_SET_XTND_REG32((void CYFAR *)CYREG_SAR_MUX_SWITCH_HW_CTRL, 0x004000D0u);
 316:Generated_Source\PSoC4/cyfitter_cfg.c **** 	CY_SET_XTND_REG32((void CYFAR *)CYREG_PASS_DSAB_DSAB_CTRL, 0x00000000u);
 317:Generated_Source\PSoC4/cyfitter_cfg.c **** 	SetAnalogRoutingPumps(1);
 318:Generated_Source\PSoC4/cyfitter_cfg.c **** }
 319:Generated_Source\PSoC4/cyfitter_cfg.c **** 
 320:Generated_Source\PSoC4/cyfitter_cfg.c **** 
 321:Generated_Source\PSoC4/cyfitter_cfg.c **** /*******************************************************************************
 322:Generated_Source\PSoC4/cyfitter_cfg.c **** * Function Name: SetAnalogRoutingPumps
 323:Generated_Source\PSoC4/cyfitter_cfg.c **** ********************************************************************************
 324:Generated_Source\PSoC4/cyfitter_cfg.c **** *
 325:Generated_Source\PSoC4/cyfitter_cfg.c **** * Summary:
 326:Generated_Source\PSoC4/cyfitter_cfg.c **** * Enables or disables the analog pumps feeding analog routing switches.
 327:Generated_Source\PSoC4/cyfitter_cfg.c **** * Intended to be called at startup, based on the Vdda system configuration;
 328:Generated_Source\PSoC4/cyfitter_cfg.c **** * may be called during operation when the user informs us that the Vdda voltage crossed the pump th
 329:Generated_Source\PSoC4/cyfitter_cfg.c **** *
 330:Generated_Source\PSoC4/cyfitter_cfg.c **** * Parameters:
 331:Generated_Source\PSoC4/cyfitter_cfg.c **** *  enabled - 1 to enable the pumps, 0 to disable the pumps
 332:Generated_Source\PSoC4/cyfitter_cfg.c **** *
 333:Generated_Source\PSoC4/cyfitter_cfg.c **** * Return:
 334:Generated_Source\PSoC4/cyfitter_cfg.c **** *  void
 335:Generated_Source\PSoC4/cyfitter_cfg.c **** *
 336:Generated_Source\PSoC4/cyfitter_cfg.c **** *******************************************************************************/
 337:Generated_Source\PSoC4/cyfitter_cfg.c **** void SetAnalogRoutingPumps(uint8 enabled)
 338:Generated_Source\PSoC4/cyfitter_cfg.c **** {
 325              		.loc 1 338 0
 326              		.cfi_startproc
 327              		@ args = 0, pretend = 0, frame = 0
 328              		@ frame_needed = 0, uses_anonymous_args = 0
 329              		@ link register save eliminated.
 330              	.LVL19:
 339:Generated_Source\PSoC4/cyfitter_cfg.c **** 	uint32 regValue = CY_GET_XTND_REG32((void *)(CYREG_SAR_PUMP_CTRL));
 331              		.loc 1 339 0
 332 0000 064B     		ldr	r3, .L13
 333 0002 1B68     		ldr	r3, [r3]
 334              	.LVL20:
 340:Generated_Source\PSoC4/cyfitter_cfg.c **** 	if (enabled != 0u)
 335              		.loc 1 340 0
 336 0004 0028     		cmp	r0, #0
 337 0006 03D0     		beq	.L11
 341:Generated_Source\PSoC4/cyfitter_cfg.c **** 	{
ARM GAS  C:\Users\becca\AppData\Local\Temp\ccAhbELO.s 			page 13


 342:Generated_Source\PSoC4/cyfitter_cfg.c **** 		regValue |= 0x80000000u;
 338              		.loc 1 342 0
 339 0008 8022     		movs	r2, #128
 340 000a 1206     		lsls	r2, r2, #24
 341 000c 1343     		orrs	r3, r2
 342              	.LVL21:
 343 000e 01E0     		b	.L12
 344              	.L11:
 343:Generated_Source\PSoC4/cyfitter_cfg.c **** 	}
 344:Generated_Source\PSoC4/cyfitter_cfg.c **** 	else
 345:Generated_Source\PSoC4/cyfitter_cfg.c **** 	{
 346:Generated_Source\PSoC4/cyfitter_cfg.c **** 		regValue &= ~0x80000000u;
 345              		.loc 1 346 0
 346 0010 5B00     		lsls	r3, r3, #1
 347              	.LVL22:
 348 0012 5B08     		lsrs	r3, r3, #1
 349              	.LVL23:
 350              	.L12:
 347:Generated_Source\PSoC4/cyfitter_cfg.c **** 	}
 348:Generated_Source\PSoC4/cyfitter_cfg.c **** 	CY_SET_XTND_REG32((void *)(CYREG_SAR_PUMP_CTRL), regValue);
 351              		.loc 1 348 0
 352 0014 014A     		ldr	r2, .L13
 353 0016 1360     		str	r3, [r2]
 349:Generated_Source\PSoC4/cyfitter_cfg.c **** }
 354              		.loc 1 349 0
 355              		@ sp needed
 356 0018 7047     		bx	lr
 357              	.L14:
 358 001a C046     		.align	2
 359              	.L13:
 360 001c 80033A40 		.word	1077543808
 361              		.cfi_endproc
 362              	.LFE7:
 363              		.size	SetAnalogRoutingPumps, .-SetAnalogRoutingPumps
 364              		.section	.text.AnalogSetDefault,"ax",%progbits
 365              		.align	2
 366              		.code	16
 367              		.thumb_func
 368              		.type	AnalogSetDefault, %function
 369              	AnalogSetDefault:
 370              	.LFB6:
 306:Generated_Source\PSoC4/cyfitter_cfg.c **** 	CY_SET_XTND_REG32((void CYFAR *)CYREG_CTBM0_CTB_CTRL, 0x80000000u);
 371              		.loc 1 306 0
 372              		.cfi_startproc
 373              		@ args = 0, pretend = 0, frame = 0
 374              		@ frame_needed = 0, uses_anonymous_args = 0
 375 0000 10B5     		push	{r4, lr}
 376              		.cfi_def_cfa_offset 8
 377              		.cfi_offset 4, -8
 378              		.cfi_offset 14, -4
 307:Generated_Source\PSoC4/cyfitter_cfg.c **** 	CY_SET_XTND_REG32((void CYFAR *)CYREG_CTBM0_DFT_CTRL, 0x00000003u);
 379              		.loc 1 307 0
 380 0002 8023     		movs	r3, #128
 381 0004 1B06     		lsls	r3, r3, #24
 382 0006 0F4A     		ldr	r2, .L16
 383 0008 1360     		str	r3, [r2]
 308:Generated_Source\PSoC4/cyfitter_cfg.c **** 	CY_SET_XTND_REG32((void CYFAR *)CYREG_CTBM0_OA0_SW, 0x00044004u);
ARM GAS  C:\Users\becca\AppData\Local\Temp\ccAhbELO.s 			page 14


 384              		.loc 1 308 0
 385 000a 0322     		movs	r2, #3
 386 000c 0E49     		ldr	r1, .L16+4
 387 000e 0A60     		str	r2, [r1]
 309:Generated_Source\PSoC4/cyfitter_cfg.c **** 	CY_SET_XTND_REG32((void CYFAR *)CYREG_CTBM0_OA1_SW, 0x00044002u);
 388              		.loc 1 309 0
 389 0010 0E48     		ldr	r0, .L16+8
 390 0012 0F49     		ldr	r1, .L16+12
 391 0014 0860     		str	r0, [r1]
 310:Generated_Source\PSoC4/cyfitter_cfg.c **** 	CY_SET_XTND_REG32((void CYFAR *)CYREG_CTBM0_CTB_SW_HW_CTRL, 0x0000000Cu);
 392              		.loc 1 310 0
 393 0016 0F48     		ldr	r0, .L16+16
 394 0018 0F49     		ldr	r1, .L16+20
 395 001a 0860     		str	r0, [r1]
 311:Generated_Source\PSoC4/cyfitter_cfg.c **** 	CY_SET_XTND_REG32((void CYFAR *)CYREG_CTBM1_DFT_CTRL, 0x00000003u);
 396              		.loc 1 311 0
 397 001c 0C20     		movs	r0, #12
 398 001e 0F49     		ldr	r1, .L16+24
 399 0020 0860     		str	r0, [r1]
 312:Generated_Source\PSoC4/cyfitter_cfg.c **** 	CY_SET_XTND_REG32((void CYFAR *)CYREG_SAR_CTRL, 0x80000000u);
 400              		.loc 1 312 0
 401 0022 0F49     		ldr	r1, .L16+28
 402 0024 0A60     		str	r2, [r1]
 313:Generated_Source\PSoC4/cyfitter_cfg.c **** 	CY_SET_XTND_REG32((void CYFAR *)CYREG_SAR_MUX_SWITCH0, 0x00408050u);
 403              		.loc 1 313 0
 404 0026 0F4A     		ldr	r2, .L16+32
 405 0028 1360     		str	r3, [r2]
 314:Generated_Source\PSoC4/cyfitter_cfg.c **** 	CY_SET_XTND_REG32((void CYFAR *)CYREG_SAR_MUX_SWITCH_HW_CTRL, 0x004000D0u);
 406              		.loc 1 314 0
 407 002a 0F4A     		ldr	r2, .L16+36
 408 002c 0F4B     		ldr	r3, .L16+40
 409 002e 1A60     		str	r2, [r3]
 315:Generated_Source\PSoC4/cyfitter_cfg.c **** 	CY_SET_XTND_REG32((void CYFAR *)CYREG_PASS_DSAB_DSAB_CTRL, 0x00000000u);
 410              		.loc 1 315 0
 411 0030 0F4A     		ldr	r2, .L16+44
 412 0032 104B     		ldr	r3, .L16+48
 413 0034 1A60     		str	r2, [r3]
 316:Generated_Source\PSoC4/cyfitter_cfg.c **** 	SetAnalogRoutingPumps(1);
 414              		.loc 1 316 0
 415 0036 0022     		movs	r2, #0
 416 0038 0F4B     		ldr	r3, .L16+52
 417 003a 1A60     		str	r2, [r3]
 317:Generated_Source\PSoC4/cyfitter_cfg.c **** }
 418              		.loc 1 317 0
 419 003c 0B38     		subs	r0, r0, #11
 420 003e FFF7FEFF 		bl	SetAnalogRoutingPumps
 421              	.LVL24:
 318:Generated_Source\PSoC4/cyfitter_cfg.c **** 
 422              		.loc 1 318 0
 423              		@ sp needed
 424 0042 10BD     		pop	{r4, pc}
 425              	.L17:
 426              		.align	2
 427              	.L16:
 428 0044 00003040 		.word	1076887552
 429 0048 30003040 		.word	1076887600
 430 004c 04400400 		.word	278532
ARM GAS  C:\Users\becca\AppData\Local\Temp\ccAhbELO.s 			page 15


 431 0050 80003040 		.word	1076887680
 432 0054 02400400 		.word	278530
 433 0058 88003040 		.word	1076887688
 434 005c C0003040 		.word	1076887744
 435 0060 30003140 		.word	1076953136
 436 0064 00003A40 		.word	1077542912
 437 0068 50804000 		.word	4227152
 438 006c 00033A40 		.word	1077543680
 439 0070 D0004000 		.word	4194512
 440 0074 40033A40 		.word	1077543744
 441 0078 000E3F40 		.word	1077874176
 442              		.cfi_endproc
 443              	.LFE6:
 444              		.size	AnalogSetDefault, .-AnalogSetDefault
 445              		.section	.psocinit
 446              		.align	2
 447              		.global	cyfitter_cfg
 448              		.code	16
 449              		.thumb_func
 450              		.type	cyfitter_cfg, %function
 451              	cyfitter_cfg:
 452              	.LFB8:
 350:Generated_Source\PSoC4/cyfitter_cfg.c **** 
 351:Generated_Source\PSoC4/cyfitter_cfg.c **** 
 352:Generated_Source\PSoC4/cyfitter_cfg.c **** 
 353:Generated_Source\PSoC4/cyfitter_cfg.c **** 
 354:Generated_Source\PSoC4/cyfitter_cfg.c **** /*******************************************************************************
 355:Generated_Source\PSoC4/cyfitter_cfg.c **** * Function Name: cyfitter_cfg
 356:Generated_Source\PSoC4/cyfitter_cfg.c **** ********************************************************************************
 357:Generated_Source\PSoC4/cyfitter_cfg.c **** * Summary:
 358:Generated_Source\PSoC4/cyfitter_cfg.c **** *  This function is called by the start-up code for the selected device. It
 359:Generated_Source\PSoC4/cyfitter_cfg.c **** *  performs all of the necessary device configuration based on the design
 360:Generated_Source\PSoC4/cyfitter_cfg.c **** *  settings.  This includes settings from the Design Wide Resources (DWR) such
 361:Generated_Source\PSoC4/cyfitter_cfg.c **** *  as Clocks and Pins as well as any component configuration that is necessary.
 362:Generated_Source\PSoC4/cyfitter_cfg.c **** *
 363:Generated_Source\PSoC4/cyfitter_cfg.c **** * Parameters:
 364:Generated_Source\PSoC4/cyfitter_cfg.c **** *   void
 365:Generated_Source\PSoC4/cyfitter_cfg.c **** *
 366:Generated_Source\PSoC4/cyfitter_cfg.c **** * Return:
 367:Generated_Source\PSoC4/cyfitter_cfg.c **** *   void
 368:Generated_Source\PSoC4/cyfitter_cfg.c **** *
 369:Generated_Source\PSoC4/cyfitter_cfg.c **** *******************************************************************************/
 370:Generated_Source\PSoC4/cyfitter_cfg.c **** CY_CFG_SECTION
 371:Generated_Source\PSoC4/cyfitter_cfg.c **** void cyfitter_cfg(void)
 372:Generated_Source\PSoC4/cyfitter_cfg.c **** {
 453              		.loc 1 372 0
 454              		.cfi_startproc
 455              		@ args = 0, pretend = 0, frame = 0
 456              		@ frame_needed = 0, uses_anonymous_args = 0
 457 0154 70B5     		push	{r4, r5, r6, lr}
 458              		.cfi_def_cfa_offset 16
 459              		.cfi_offset 4, -16
 460              		.cfi_offset 5, -12
 461              		.cfi_offset 6, -8
 462              		.cfi_offset 14, -4
 373:Generated_Source\PSoC4/cyfitter_cfg.c **** 	/* Disable interrupts by default. Let user enable if/when they want. */
 374:Generated_Source\PSoC4/cyfitter_cfg.c **** 	CyGlobalIntDisable;
ARM GAS  C:\Users\becca\AppData\Local\Temp\ccAhbELO.s 			page 16


 463              		.loc 1 374 0
 464              		.syntax divided
 465              	@ 374 "Generated_Source\PSoC4\cyfitter_cfg.c" 1
 466 0156 72B6     		CPSID   i
 467              	@ 0 "" 2
 375:Generated_Source\PSoC4/cyfitter_cfg.c **** 
 376:Generated_Source\PSoC4/cyfitter_cfg.c **** 	/* Enable the clock in the interrupt controller for the routed interrupts */
 377:Generated_Source\PSoC4/cyfitter_cfg.c **** 	CY_SET_REG8((void *)CYREG_UDB_UDB_INT_CLK_CTL, 0x01u);
 468              		.loc 1 377 0
 469              		.thumb
 470              		.syntax unified
 471 0158 0122     		movs	r2, #1
 472 015a 504B     		ldr	r3, .L21
 473 015c 1A70     		strb	r2, [r3]
 474              	.LVL25:
 475              	.LBB3:
 378:Generated_Source\PSoC4/cyfitter_cfg.c **** 	{
 379:Generated_Source\PSoC4/cyfitter_cfg.c **** 		static const uint32 CYCODE cy_cfg_addr_table[] = {
 380:Generated_Source\PSoC4/cyfitter_cfg.c **** 			0x400F3101u, /* Base address: 0x400F3100 Count: 1 */
 381:Generated_Source\PSoC4/cyfitter_cfg.c **** 			0x400F3501u, /* Base address: 0x400F3500 Count: 1 */
 382:Generated_Source\PSoC4/cyfitter_cfg.c **** 			0x400F3604u, /* Base address: 0x400F3600 Count: 4 */
 383:Generated_Source\PSoC4/cyfitter_cfg.c **** 			0x400F3707u, /* Base address: 0x400F3700 Count: 7 */
 384:Generated_Source\PSoC4/cyfitter_cfg.c **** 			0x400F4006u, /* Base address: 0x400F4000 Count: 6 */
 385:Generated_Source\PSoC4/cyfitter_cfg.c **** 			0x400F4103u, /* Base address: 0x400F4100 Count: 3 */
 386:Generated_Source\PSoC4/cyfitter_cfg.c **** 			0x400F4202u, /* Base address: 0x400F4200 Count: 2 */
 387:Generated_Source\PSoC4/cyfitter_cfg.c **** 			0x400F4303u, /* Base address: 0x400F4300 Count: 3 */
 388:Generated_Source\PSoC4/cyfitter_cfg.c **** 			0x400F4403u, /* Base address: 0x400F4400 Count: 3 */
 389:Generated_Source\PSoC4/cyfitter_cfg.c **** 			0x400F4507u, /* Base address: 0x400F4500 Count: 7 */
 390:Generated_Source\PSoC4/cyfitter_cfg.c **** 			0x400F4607u, /* Base address: 0x400F4600 Count: 7 */
 391:Generated_Source\PSoC4/cyfitter_cfg.c **** 			0x400F4705u, /* Base address: 0x400F4700 Count: 5 */
 392:Generated_Source\PSoC4/cyfitter_cfg.c **** 			0x400F6002u, /* Base address: 0x400F6000 Count: 2 */
 393:Generated_Source\PSoC4/cyfitter_cfg.c **** 		};
 394:Generated_Source\PSoC4/cyfitter_cfg.c **** 
 395:Generated_Source\PSoC4/cyfitter_cfg.c **** 		static const cy_cfg_addrvalue_t CYCODE cy_cfg_data_table[] = {
 396:Generated_Source\PSoC4/cyfitter_cfg.c **** 			{0xE2u, 0x08u},
 397:Generated_Source\PSoC4/cyfitter_cfg.c **** 			{0xECu, 0x10u},
 398:Generated_Source\PSoC4/cyfitter_cfg.c **** 			{0x38u, 0xA8u},
 399:Generated_Source\PSoC4/cyfitter_cfg.c **** 			{0x3Eu, 0x54u},
 400:Generated_Source\PSoC4/cyfitter_cfg.c **** 			{0x58u, 0x04u},
 401:Generated_Source\PSoC4/cyfitter_cfg.c **** 			{0x5Fu, 0x01u},
 402:Generated_Source\PSoC4/cyfitter_cfg.c **** 			{0x1Cu, 0x10u},
 403:Generated_Source\PSoC4/cyfitter_cfg.c **** 			{0x1Du, 0x90u},
 404:Generated_Source\PSoC4/cyfitter_cfg.c **** 			{0x1Fu, 0x80u},
 405:Generated_Source\PSoC4/cyfitter_cfg.c **** 			{0x87u, 0x80u},
 406:Generated_Source\PSoC4/cyfitter_cfg.c **** 			{0x89u, 0x80u},
 407:Generated_Source\PSoC4/cyfitter_cfg.c **** 			{0x8Cu, 0x10u},
 408:Generated_Source\PSoC4/cyfitter_cfg.c **** 			{0x8Du, 0x10u},
 409:Generated_Source\PSoC4/cyfitter_cfg.c **** 			{0x53u, 0x20u},
 410:Generated_Source\PSoC4/cyfitter_cfg.c **** 			{0x6Bu, 0x08u},
 411:Generated_Source\PSoC4/cyfitter_cfg.c **** 			{0x87u, 0x08u},
 412:Generated_Source\PSoC4/cyfitter_cfg.c **** 			{0xD4u, 0x20u},
 413:Generated_Source\PSoC4/cyfitter_cfg.c **** 			{0xDAu, 0x40u},
 414:Generated_Source\PSoC4/cyfitter_cfg.c **** 			{0xE2u, 0x10u},
 415:Generated_Source\PSoC4/cyfitter_cfg.c **** 			{0x04u, 0x01u},
 416:Generated_Source\PSoC4/cyfitter_cfg.c **** 			{0xA7u, 0x20u},
 417:Generated_Source\PSoC4/cyfitter_cfg.c **** 			{0xC0u, 0x20u},
 418:Generated_Source\PSoC4/cyfitter_cfg.c **** 			{0xA7u, 0x20u},
ARM GAS  C:\Users\becca\AppData\Local\Temp\ccAhbELO.s 			page 17


 419:Generated_Source\PSoC4/cyfitter_cfg.c **** 			{0xB4u, 0x01u},
 420:Generated_Source\PSoC4/cyfitter_cfg.c **** 			{0x87u, 0x20u},
 421:Generated_Source\PSoC4/cyfitter_cfg.c **** 			{0xA7u, 0x20u},
 422:Generated_Source\PSoC4/cyfitter_cfg.c **** 			{0xE6u, 0x10u},
 423:Generated_Source\PSoC4/cyfitter_cfg.c **** 			{0x1Fu, 0x40u},
 424:Generated_Source\PSoC4/cyfitter_cfg.c **** 			{0x87u, 0x40u},
 425:Generated_Source\PSoC4/cyfitter_cfg.c **** 			{0xC6u, 0x01u},
 426:Generated_Source\PSoC4/cyfitter_cfg.c **** 			{0x38u, 0x02u},
 427:Generated_Source\PSoC4/cyfitter_cfg.c **** 			{0x3Cu, 0x08u},
 428:Generated_Source\PSoC4/cyfitter_cfg.c **** 			{0x40u, 0x01u},
 429:Generated_Source\PSoC4/cyfitter_cfg.c **** 			{0x50u, 0x04u},
 430:Generated_Source\PSoC4/cyfitter_cfg.c **** 			{0xCEu, 0x03u},
 431:Generated_Source\PSoC4/cyfitter_cfg.c **** 			{0xD0u, 0x08u},
 432:Generated_Source\PSoC4/cyfitter_cfg.c **** 			{0xD4u, 0x04u},
 433:Generated_Source\PSoC4/cyfitter_cfg.c **** 			{0x38u, 0x02u},
 434:Generated_Source\PSoC4/cyfitter_cfg.c **** 			{0x3Cu, 0x08u},
 435:Generated_Source\PSoC4/cyfitter_cfg.c **** 			{0x94u, 0x0Au},
 436:Generated_Source\PSoC4/cyfitter_cfg.c **** 			{0xA4u, 0x04u},
 437:Generated_Source\PSoC4/cyfitter_cfg.c **** 			{0xB4u, 0x01u},
 438:Generated_Source\PSoC4/cyfitter_cfg.c **** 			{0xCEu, 0x03u},
 439:Generated_Source\PSoC4/cyfitter_cfg.c **** 			{0xECu, 0x08u},
 440:Generated_Source\PSoC4/cyfitter_cfg.c **** 			{0x88u, 0x04u},
 441:Generated_Source\PSoC4/cyfitter_cfg.c **** 			{0x8Cu, 0x05u},
 442:Generated_Source\PSoC4/cyfitter_cfg.c **** 			{0x94u, 0x0Au},
 443:Generated_Source\PSoC4/cyfitter_cfg.c **** 			{0xA4u, 0x04u},
 444:Generated_Source\PSoC4/cyfitter_cfg.c **** 			{0xE0u, 0x0Eu},
 445:Generated_Source\PSoC4/cyfitter_cfg.c **** 			{0x02u, 0x01u},
 446:Generated_Source\PSoC4/cyfitter_cfg.c **** 			{0x11u, 0x01u},
 447:Generated_Source\PSoC4/cyfitter_cfg.c **** 		};
 448:Generated_Source\PSoC4/cyfitter_cfg.c **** 
 449:Generated_Source\PSoC4/cyfitter_cfg.c **** 
 450:Generated_Source\PSoC4/cyfitter_cfg.c **** 
 451:Generated_Source\PSoC4/cyfitter_cfg.c **** 		CYPACKED typedef struct {
 452:Generated_Source\PSoC4/cyfitter_cfg.c **** 			void CYFAR *address;
 453:Generated_Source\PSoC4/cyfitter_cfg.c **** 			uint16 size;
 454:Generated_Source\PSoC4/cyfitter_cfg.c **** 		} CYPACKED_ATTR cfg_memset_t;
 455:Generated_Source\PSoC4/cyfitter_cfg.c **** 
 456:Generated_Source\PSoC4/cyfitter_cfg.c **** 		static const cfg_memset_t CYCODE cfg_memset_list[] = {
 457:Generated_Source\PSoC4/cyfitter_cfg.c **** 			/* address, size */
 458:Generated_Source\PSoC4/cyfitter_cfg.c **** 			{(void CYFAR *)(CYDEV_UDB_P0_U0_BASE), 2048u},
 459:Generated_Source\PSoC4/cyfitter_cfg.c **** 			{(void CYFAR *)(CYDEV_UDB_DSI0_BASE), 2048u},
 460:Generated_Source\PSoC4/cyfitter_cfg.c **** 		};
 461:Generated_Source\PSoC4/cyfitter_cfg.c **** 
 462:Generated_Source\PSoC4/cyfitter_cfg.c **** 		uint8 CYDATA i;
 463:Generated_Source\PSoC4/cyfitter_cfg.c **** 
 464:Generated_Source\PSoC4/cyfitter_cfg.c **** 		/* Zero out critical memory blocks before beginning configuration */
 465:Generated_Source\PSoC4/cyfitter_cfg.c **** 		for (i = 0u; i < (sizeof(cfg_memset_list)/sizeof(cfg_memset_list[0])); i++)
 476              		.loc 1 465 0
 477 015e 0024     		movs	r4, #0
 478 0160 0FE0     		b	.L19
 479              	.LVL26:
 480              	.L20:
 481              	.LBB4:
 466:Generated_Source\PSoC4/cyfitter_cfg.c **** 		{
 467:Generated_Source\PSoC4/cyfitter_cfg.c **** 			const cfg_memset_t CYCODE * CYDATA ms = &cfg_memset_list[i];
 468:Generated_Source\PSoC4/cyfitter_cfg.c **** 			CYMEMZERO(ms->address, (size_t)(uint32)(ms->size));
 482              		.loc 1 468 0 discriminator 3
ARM GAS  C:\Users\becca\AppData\Local\Temp\ccAhbELO.s 			page 18


 483 0162 4F48     		ldr	r0, .L21+4
 484 0164 6200     		lsls	r2, r4, #1
 485 0166 1319     		adds	r3, r2, r4
 486 0168 5900     		lsls	r1, r3, #1
 487 016a 0B00     		movs	r3, r1
 488 016c 4118     		adds	r1, r0, r1
 489 016e 8988     		ldrh	r1, [r1, #4]
 490 0170 1A5A     		ldrh	r2, [r3, r0]
 491 0172 C318     		adds	r3, r0, r3
 492 0174 5888     		ldrh	r0, [r3, #2]
 493 0176 0004     		lsls	r0, r0, #16
 494 0178 1043     		orrs	r0, r2
 495 017a FFF7FEFF 		bl	CYMEMZERO
 496              	.LVL27:
 497              	.LBE4:
 465:Generated_Source\PSoC4/cyfitter_cfg.c **** 		{
 498              		.loc 1 465 0 discriminator 3
 499 017e 0134     		adds	r4, r4, #1
 500              	.LVL28:
 501 0180 E4B2     		uxtb	r4, r4
 502              	.LVL29:
 503              	.L19:
 465:Generated_Source\PSoC4/cyfitter_cfg.c **** 		{
 504              		.loc 1 465 0 is_stmt 0 discriminator 1
 505 0182 012C     		cmp	r4, #1
 506 0184 EDD9     		bls	.L20
 469:Generated_Source\PSoC4/cyfitter_cfg.c **** 		}
 470:Generated_Source\PSoC4/cyfitter_cfg.c **** 
 471:Generated_Source\PSoC4/cyfitter_cfg.c **** 		cfg_write_bytes32(cy_cfg_addr_table, cy_cfg_data_table);
 507              		.loc 1 471 0 is_stmt 1
 508 0186 4648     		ldr	r0, .L21+4
 509 0188 0100     		movs	r1, r0
 510 018a 0C31     		adds	r1, r1, #12
 511 018c 7430     		adds	r0, r0, #116
 512 018e FFF7FEFF 		bl	cfg_write_bytes32
 513              	.LVL30:
 472:Generated_Source\PSoC4/cyfitter_cfg.c **** 
 473:Generated_Source\PSoC4/cyfitter_cfg.c **** 		/* HSIOM Starting address: CYDEV_HSIOM_BASE */
 474:Generated_Source\PSoC4/cyfitter_cfg.c **** 		CY_SET_REG32((void *)(CYDEV_HSIOM_BASE), 0xF8000000u);
 514              		.loc 1 474 0
 515 0192 F822     		movs	r2, #248
 516 0194 1206     		lsls	r2, r2, #24
 517 0196 434B     		ldr	r3, .L21+8
 518 0198 1A60     		str	r2, [r3]
 475:Generated_Source\PSoC4/cyfitter_cfg.c **** 		CY_SET_REG32((void *)(CYREG_HSIOM_PORT_SEL1), 0x00000800u);
 519              		.loc 1 475 0
 520 019a 8022     		movs	r2, #128
 521 019c 1201     		lsls	r2, r2, #4
 522 019e 424B     		ldr	r3, .L21+12
 523 01a0 1A60     		str	r2, [r3]
 476:Generated_Source\PSoC4/cyfitter_cfg.c **** 		CY_SET_REG32((void *)(CYREG_HSIOM_PORT_SEL2), 0x00000FFFu);
 524              		.loc 1 476 0
 525 01a2 424A     		ldr	r2, .L21+16
 526 01a4 424B     		ldr	r3, .L21+20
 527 01a6 1A60     		str	r2, [r3]
 477:Generated_Source\PSoC4/cyfitter_cfg.c **** 		CY_SET_REG32((void *)(CYREG_HSIOM_PORT_SEL3), 0x0008EE08u);
 528              		.loc 1 477 0
ARM GAS  C:\Users\becca\AppData\Local\Temp\ccAhbELO.s 			page 19


 529 01a8 424A     		ldr	r2, .L21+24
 530 01aa 434B     		ldr	r3, .L21+28
 531 01ac 1A60     		str	r2, [r3]
 478:Generated_Source\PSoC4/cyfitter_cfg.c **** 		CY_SET_REG32((void *)(CYREG_HSIOM_PORT_SEL4), 0x0AA00099u);
 532              		.loc 1 478 0
 533 01ae 434A     		ldr	r2, .L21+32
 534 01b0 434B     		ldr	r3, .L21+36
 535 01b2 1A60     		str	r2, [r3]
 479:Generated_Source\PSoC4/cyfitter_cfg.c **** 		CY_SET_REG32((void *)(CYREG_HSIOM_PORT_SEL5), 0x000076EEu);
 536              		.loc 1 479 0
 537 01b4 434A     		ldr	r2, .L21+40
 538 01b6 444B     		ldr	r3, .L21+44
 539 01b8 1A60     		str	r2, [r3]
 480:Generated_Source\PSoC4/cyfitter_cfg.c **** 
 481:Generated_Source\PSoC4/cyfitter_cfg.c **** 		/* UDB_PA_0 Starting address: CYDEV_UDB_PA0_BASE */
 482:Generated_Source\PSoC4/cyfitter_cfg.c **** 		CY_SET_REG32((void *)(CYDEV_UDB_PA0_BASE), 0x00990000u);
 540              		.loc 1 482 0
 541 01ba 9923     		movs	r3, #153
 542 01bc 1B04     		lsls	r3, r3, #16
 543 01be 434A     		ldr	r2, .L21+48
 544 01c0 1360     		str	r3, [r2]
 483:Generated_Source\PSoC4/cyfitter_cfg.c **** 		CY_SET_REG32((void *)(CYREG_UDB_PA0_CFG8), 0x00050000u);
 545              		.loc 1 483 0
 546 01c2 A021     		movs	r1, #160
 547 01c4 C902     		lsls	r1, r1, #11
 548 01c6 424A     		ldr	r2, .L21+52
 549 01c8 1160     		str	r1, [r2]
 484:Generated_Source\PSoC4/cyfitter_cfg.c **** 
 485:Generated_Source\PSoC4/cyfitter_cfg.c **** 		/* UDB_PA_1 Starting address: CYDEV_UDB_PA1_BASE */
 486:Generated_Source\PSoC4/cyfitter_cfg.c **** 		CY_SET_REG32((void *)(CYDEV_UDB_PA1_BASE), 0x00990004u);
 550              		.loc 1 486 0
 551 01ca 4249     		ldr	r1, .L21+56
 552 01cc 424A     		ldr	r2, .L21+60
 553 01ce 1160     		str	r1, [r2]
 487:Generated_Source\PSoC4/cyfitter_cfg.c **** 		CY_SET_REG32((void *)(CYREG_UDB_PA1_CFG4), 0x00080000u);
 554              		.loc 1 487 0
 555 01d0 8021     		movs	r1, #128
 556 01d2 0903     		lsls	r1, r1, #12
 557 01d4 414A     		ldr	r2, .L21+64
 558 01d6 1160     		str	r1, [r2]
 488:Generated_Source\PSoC4/cyfitter_cfg.c **** 
 489:Generated_Source\PSoC4/cyfitter_cfg.c **** 		/* UDB_PA_2 Starting address: CYDEV_UDB_PA2_BASE */
 490:Generated_Source\PSoC4/cyfitter_cfg.c **** 		CY_SET_REG32((void *)(CYDEV_UDB_PA2_BASE), 0x00990000u);
 559              		.loc 1 490 0
 560 01d8 414A     		ldr	r2, .L21+68
 561 01da 1360     		str	r3, [r2]
 491:Generated_Source\PSoC4/cyfitter_cfg.c **** 
 492:Generated_Source\PSoC4/cyfitter_cfg.c **** 		/* UDB_PA_4 Starting address: CYDEV_UDB_PA4_BASE */
 493:Generated_Source\PSoC4/cyfitter_cfg.c **** 		CY_SET_REG32((void *)(CYDEV_UDB_PA4_BASE), 0x00990000u);
 562              		.loc 1 493 0
 563 01dc 414A     		ldr	r2, .L21+72
 564 01de 1360     		str	r3, [r2]
 494:Generated_Source\PSoC4/cyfitter_cfg.c **** 
 495:Generated_Source\PSoC4/cyfitter_cfg.c **** 		/* UDB_PA_5 Starting address: CYDEV_UDB_PA5_BASE */
 496:Generated_Source\PSoC4/cyfitter_cfg.c **** 		CY_SET_REG32((void *)(CYDEV_UDB_PA5_BASE), 0x00990000u);
 565              		.loc 1 496 0
 566 01e0 414A     		ldr	r2, .L21+76
ARM GAS  C:\Users\becca\AppData\Local\Temp\ccAhbELO.s 			page 20


 567 01e2 1360     		str	r3, [r2]
 497:Generated_Source\PSoC4/cyfitter_cfg.c **** 		CY_SET_REG32((void *)(CYREG_UDB_PA5_CFG8), 0x00450000u);
 568              		.loc 1 497 0
 569 01e4 8A21     		movs	r1, #138
 570 01e6 C903     		lsls	r1, r1, #15
 571 01e8 404A     		ldr	r2, .L21+80
 572 01ea 1160     		str	r1, [r2]
 498:Generated_Source\PSoC4/cyfitter_cfg.c **** 
 499:Generated_Source\PSoC4/cyfitter_cfg.c **** 		/* UDB_PA_7 Starting address: CYDEV_UDB_PA7_BASE */
 500:Generated_Source\PSoC4/cyfitter_cfg.c **** 		CY_SET_REG32((void *)(CYDEV_UDB_PA7_BASE), 0x00990000u);
 573              		.loc 1 500 0
 574 01ec 404A     		ldr	r2, .L21+84
 575 01ee 1360     		str	r3, [r2]
 501:Generated_Source\PSoC4/cyfitter_cfg.c **** 
 502:Generated_Source\PSoC4/cyfitter_cfg.c **** 		/* TCPWM_CNT1 Starting address: CYDEV_TCPWM_CNT1_TR_CTRL0 */
 503:Generated_Source\PSoC4/cyfitter_cfg.c **** 		CY_SET_REG32((void *)(CYREG_TCPWM_CNT1_TR_CTRL0), 0x00099910u);
 576              		.loc 1 503 0
 577 01f0 404A     		ldr	r2, .L21+88
 578 01f2 414B     		ldr	r3, .L21+92
 579 01f4 1A60     		str	r2, [r3]
 504:Generated_Source\PSoC4/cyfitter_cfg.c **** 
 505:Generated_Source\PSoC4/cyfitter_cfg.c **** 		/* INT_SELECT Starting address: CYDEV_CPUSS_INT_SEL */
 506:Generated_Source\PSoC4/cyfitter_cfg.c **** 		CY_SET_REG32((void *)(CYREG_CPUSS_INT_SEL), 0x00000001u);
 580              		.loc 1 506 0
 581 01f6 0121     		movs	r1, #1
 582 01f8 404B     		ldr	r3, .L21+96
 583 01fa 1960     		str	r1, [r3]
 507:Generated_Source\PSoC4/cyfitter_cfg.c **** 
 508:Generated_Source\PSoC4/cyfitter_cfg.c **** 		/* Enable UDB array and digital routing */
 509:Generated_Source\PSoC4/cyfitter_cfg.c **** 		CY_SET_XTND_REG8((void *)CYREG_UDB_UDB_WAIT_CFG, (uint8)((CY_GET_XTND_REG8((void *)CYREG_UDB_UDB_
 584              		.loc 1 509 0
 585 01fc 4048     		ldr	r0, .L21+100
 586 01fe 0378     		ldrb	r3, [r0]
 587 0200 3C22     		movs	r2, #60
 588 0202 9343     		bics	r3, r2
 589 0204 1422     		movs	r2, #20
 590 0206 1343     		orrs	r3, r2
 591 0208 DBB2     		uxtb	r3, r3
 592 020a 0370     		strb	r3, [r0]
 510:Generated_Source\PSoC4/cyfitter_cfg.c **** 		CY_SET_XTND_REG8((void *)CYREG_UDB_UDB_BANK_CTL, (uint8)(CY_GET_XTND_REG8((void *)CYREG_UDB_UDB_B
 593              		.loc 1 510 0
 594 020c 3D4A     		ldr	r2, .L21+104
 595 020e 1078     		ldrb	r0, [r2]
 596 0210 1623     		movs	r3, #22
 597 0212 0343     		orrs	r3, r0
 598 0214 DBB2     		uxtb	r3, r3
 599 0216 1370     		strb	r3, [r2]
 600              	.LBE3:
 511:Generated_Source\PSoC4/cyfitter_cfg.c **** 	}
 512:Generated_Source\PSoC4/cyfitter_cfg.c **** 
 513:Generated_Source\PSoC4/cyfitter_cfg.c **** 	/* Perform second pass device configuration. These items must be configured in specific order afte
 514:Generated_Source\PSoC4/cyfitter_cfg.c **** 	/* IOPINS0_0 Starting address: CYDEV_GPIO_PRT0_BASE */
 515:Generated_Source\PSoC4/cyfitter_cfg.c **** 	CY_SET_REG32((void *)(CYDEV_GPIO_PRT0_BASE), 0x0000000Fu);
 601              		.loc 1 515 0
 602 0218 0F23     		movs	r3, #15
 603 021a 3B4A     		ldr	r2, .L21+108
 604 021c 1360     		str	r3, [r2]
ARM GAS  C:\Users\becca\AppData\Local\Temp\ccAhbELO.s 			page 21


 516:Generated_Source\PSoC4/cyfitter_cfg.c **** 	CY_SET_REG32((void *)(CYREG_GPIO_PRT0_PC), 0x00240000u);
 605              		.loc 1 516 0
 606 021e 9020     		movs	r0, #144
 607 0220 8003     		lsls	r0, r0, #14
 608 0222 3A4A     		ldr	r2, .L21+112
 609 0224 1060     		str	r0, [r2]
 517:Generated_Source\PSoC4/cyfitter_cfg.c **** 	CY_SET_REG32((void *)(CYREG_GPIO_PRT0_PC2), 0x0000000Fu);
 610              		.loc 1 517 0
 611 0226 3A4A     		ldr	r2, .L21+116
 612 0228 1360     		str	r3, [r2]
 518:Generated_Source\PSoC4/cyfitter_cfg.c **** 
 519:Generated_Source\PSoC4/cyfitter_cfg.c **** 	/* IOPINS0_1 Starting address: CYDEV_GPIO_PRT1_BASE */
 520:Generated_Source\PSoC4/cyfitter_cfg.c **** 	CY_SET_REG32((void *)(CYDEV_GPIO_PRT1_BASE), 0x00000025u);
 613              		.loc 1 520 0
 614 022a 2520     		movs	r0, #37
 615 022c 394A     		ldr	r2, .L21+120
 616 022e 1060     		str	r0, [r2]
 521:Generated_Source\PSoC4/cyfitter_cfg.c **** 	CY_SET_REG32((void *)(CYREG_GPIO_PRT1_PC), 0x00186388u);
 617              		.loc 1 521 0
 618 0230 3948     		ldr	r0, .L21+124
 619 0232 3A4A     		ldr	r2, .L21+128
 620 0234 1060     		str	r0, [r2]
 522:Generated_Source\PSoC4/cyfitter_cfg.c **** 	CY_SET_REG32((void *)(CYREG_GPIO_PRT1_INTR_CFG), 0x00000080u);
 621              		.loc 1 522 0
 622 0236 8020     		movs	r0, #128
 623 0238 394A     		ldr	r2, .L21+132
 624 023a 1060     		str	r0, [r2]
 523:Generated_Source\PSoC4/cyfitter_cfg.c **** 	CY_SET_REG32((void *)(CYREG_GPIO_PRT1_PC2), 0x00000021u);
 625              		.loc 1 523 0
 626 023c 2124     		movs	r4, #33
 627              	.LVL31:
 628 023e 394A     		ldr	r2, .L21+136
 629 0240 1460     		str	r4, [r2]
 524:Generated_Source\PSoC4/cyfitter_cfg.c **** 
 525:Generated_Source\PSoC4/cyfitter_cfg.c **** 	/* IOPINS0_2 Starting address: CYDEV_GPIO_PRT2_BASE */
 526:Generated_Source\PSoC4/cyfitter_cfg.c **** 	CY_SET_REG32((void *)(CYDEV_GPIO_PRT2_BASE), 0x000000D2u);
 630              		.loc 1 526 0
 631 0242 D222     		movs	r2, #210
 632 0244 384C     		ldr	r4, .L21+140
 633 0246 2260     		str	r2, [r4]
 527:Generated_Source\PSoC4/cyfitter_cfg.c **** 	CY_SET_REG32((void *)(CYREG_GPIO_PRT2_PC), 0x00000271u);
 634              		.loc 1 527 0
 635 0248 384D     		ldr	r5, .L21+144
 636 024a 394C     		ldr	r4, .L21+148
 637 024c 2560     		str	r5, [r4]
 528:Generated_Source\PSoC4/cyfitter_cfg.c **** 	CY_SET_REG32((void *)(CYREG_GPIO_PRT2_INTR_CFG), 0x00000080u);
 638              		.loc 1 528 0
 639 024e 394C     		ldr	r4, .L21+152
 640 0250 2060     		str	r0, [r4]
 529:Generated_Source\PSoC4/cyfitter_cfg.c **** 	CY_SET_REG32((void *)(CYREG_GPIO_PRT2_PC2), 0x000000D2u);
 641              		.loc 1 529 0
 642 0252 3948     		ldr	r0, .L21+156
 643 0254 0260     		str	r2, [r0]
 530:Generated_Source\PSoC4/cyfitter_cfg.c **** 
 531:Generated_Source\PSoC4/cyfitter_cfg.c **** 	/* IOPINS0_3 Starting address: CYDEV_GPIO_PRT3_BASE */
 532:Generated_Source\PSoC4/cyfitter_cfg.c **** 	CY_SET_REG32((void *)(CYDEV_GPIO_PRT3_BASE), 0x00000013u);
 644              		.loc 1 532 0
ARM GAS  C:\Users\becca\AppData\Local\Temp\ccAhbELO.s 			page 22


 645 0256 1320     		movs	r0, #19
 646 0258 384A     		ldr	r2, .L21+160
 647 025a 1060     		str	r0, [r2]
 533:Generated_Source\PSoC4/cyfitter_cfg.c **** 	CY_SET_REG32((void *)(CYREG_GPIO_PRT3_PC), 0x00006D96u);
 648              		.loc 1 533 0
 649 025c 3848     		ldr	r0, .L21+164
 650 025e 394A     		ldr	r2, .L21+168
 651 0260 1060     		str	r0, [r2]
 534:Generated_Source\PSoC4/cyfitter_cfg.c **** 	CY_SET_REG32((void *)(CYREG_GPIO_PRT3_INTR_CFG), 0x00000008u);
 652              		.loc 1 534 0
 653 0262 0820     		movs	r0, #8
 654 0264 384A     		ldr	r2, .L21+172
 655 0266 1060     		str	r0, [r2]
 535:Generated_Source\PSoC4/cyfitter_cfg.c **** 
 536:Generated_Source\PSoC4/cyfitter_cfg.c **** 	/* IOPINS0_4 Starting address: CYDEV_GPIO_PRT4_BASE */
 537:Generated_Source\PSoC4/cyfitter_cfg.c **** 	CY_SET_REG32((void *)(CYDEV_GPIO_PRT4_BASE), 0x0000004Eu);
 656              		.loc 1 537 0
 657 0268 4630     		adds	r0, r0, #70
 658 026a 384A     		ldr	r2, .L21+176
 659 026c 1060     		str	r0, [r2]
 538:Generated_Source\PSoC4/cyfitter_cfg.c **** 	CY_SET_REG32((void *)(CYREG_GPIO_PRT4_PC), 0x00188031u);
 660              		.loc 1 538 0
 661 026e 3848     		ldr	r0, .L21+180
 662 0270 384A     		ldr	r2, .L21+184
 663 0272 1060     		str	r0, [r2]
 539:Generated_Source\PSoC4/cyfitter_cfg.c **** 	CY_SET_REG32((void *)(CYREG_GPIO_PRT4_PC2), 0x0000000Eu);
 664              		.loc 1 539 0
 665 0274 0E20     		movs	r0, #14
 666 0276 384A     		ldr	r2, .L21+188
 667 0278 1060     		str	r0, [r2]
 540:Generated_Source\PSoC4/cyfitter_cfg.c **** 
 541:Generated_Source\PSoC4/cyfitter_cfg.c **** 	/* IOPINS0_5 Starting address: CYDEV_GPIO_PRT5_BASE */
 542:Generated_Source\PSoC4/cyfitter_cfg.c **** 	CY_SET_REG32((void *)(CYDEV_GPIO_PRT5_BASE), 0x0000000Fu);
 668              		.loc 1 542 0
 669 027a 384A     		ldr	r2, .L21+192
 670 027c 1360     		str	r3, [r2]
 543:Generated_Source\PSoC4/cyfitter_cfg.c **** 	CY_SET_REG32((void *)(CYREG_GPIO_PRT5_PC), 0x00000024u);
 671              		.loc 1 543 0
 672 027e 2422     		movs	r2, #36
 673 0280 374B     		ldr	r3, .L21+196
 674 0282 1A60     		str	r2, [r3]
 544:Generated_Source\PSoC4/cyfitter_cfg.c **** 	CY_SET_REG32((void *)(CYREG_GPIO_PRT5_PC2), 0x0000000Cu);
 675              		.loc 1 544 0
 676 0284 183A     		subs	r2, r2, #24
 677 0286 374B     		ldr	r3, .L21+200
 678 0288 1A60     		str	r2, [r3]
 545:Generated_Source\PSoC4/cyfitter_cfg.c **** 
 546:Generated_Source\PSoC4/cyfitter_cfg.c **** 	/* IOPINS0_7 Starting address: CYDEV_GPIO_PRT7_BASE */
 547:Generated_Source\PSoC4/cyfitter_cfg.c **** 	CY_SET_REG32((void *)(CYDEV_GPIO_PRT7_BASE), 0x00000001u);
 679              		.loc 1 547 0
 680 028a 374B     		ldr	r3, .L21+204
 681 028c 1960     		str	r1, [r3]
 548:Generated_Source\PSoC4/cyfitter_cfg.c **** 	CY_SET_REG32((void *)(CYREG_GPIO_PRT7_PC2), 0x00000001u);
 682              		.loc 1 548 0
 683 028e 374B     		ldr	r3, .L21+208
 684 0290 1960     		str	r1, [r3]
 549:Generated_Source\PSoC4/cyfitter_cfg.c **** 
ARM GAS  C:\Users\becca\AppData\Local\Temp\ccAhbELO.s 			page 23


 550:Generated_Source\PSoC4/cyfitter_cfg.c **** 
 551:Generated_Source\PSoC4/cyfitter_cfg.c **** 	/* Setup clocks based on selections from Clock DWR */
 552:Generated_Source\PSoC4/cyfitter_cfg.c **** 	ClockSetup();
 685              		.loc 1 552 0
 686 0292 FFF7B5FE 		bl	ClockSetup
 687              	.LVL32:
 553:Generated_Source\PSoC4/cyfitter_cfg.c **** 
 554:Generated_Source\PSoC4/cyfitter_cfg.c **** 	/* Perform basic analog initialization to defaults */
 555:Generated_Source\PSoC4/cyfitter_cfg.c **** 	AnalogSetDefault();
 688              		.loc 1 555 0
 689 0296 FFF7FEFF 		bl	AnalogSetDefault
 690              	.LVL33:
 556:Generated_Source\PSoC4/cyfitter_cfg.c **** 
 557:Generated_Source\PSoC4/cyfitter_cfg.c **** }
 691              		.loc 1 557 0
 692              		@ sp needed
 693 029a 70BD     		pop	{r4, r5, r6, pc}
 694              	.L22:
 695              		.align	2
 696              	.L21:
 697 029c 1C700F40 		.word	1074753564
 698 02a0 00000000 		.word	.LANCHOR0
 699 02a4 00000240 		.word	1073872896
 700 02a8 00010240 		.word	1073873152
 701 02ac FF0F0000 		.word	4095
 702 02b0 00020240 		.word	1073873408
 703 02b4 08EE0800 		.word	585224
 704 02b8 00030240 		.word	1073873664
 705 02bc 9900A00A 		.word	178258073
 706 02c0 00040240 		.word	1073873920
 707 02c4 EE760000 		.word	30446
 708 02c8 00050240 		.word	1073874176
 709 02cc 00500F40 		.word	1074745344
 710 02d0 08500F40 		.word	1074745352
 711 02d4 04009900 		.word	10027012
 712 02d8 10500F40 		.word	1074745360
 713 02dc 14500F40 		.word	1074745364
 714 02e0 20500F40 		.word	1074745376
 715 02e4 40500F40 		.word	1074745408
 716 02e8 50500F40 		.word	1074745424
 717 02ec 58500F40 		.word	1074745432
 718 02f0 70500F40 		.word	1074745456
 719 02f4 10990900 		.word	629008
 720 02f8 60012040 		.word	1075839328
 721 02fc 20001040 		.word	1074790432
 722 0300 01700F40 		.word	1074753537
 723 0304 00700F40 		.word	1074753536
 724 0308 00000440 		.word	1074003968
 725 030c 08000440 		.word	1074003976
 726 0310 18000440 		.word	1074003992
 727 0314 00010440 		.word	1074004224
 728 0318 88631800 		.word	1598344
 729 031c 08010440 		.word	1074004232
 730 0320 0C010440 		.word	1074004236
 731 0324 18010440 		.word	1074004248
 732 0328 00020440 		.word	1074004480
 733 032c 71020000 		.word	625
ARM GAS  C:\Users\becca\AppData\Local\Temp\ccAhbELO.s 			page 24


 734 0330 08020440 		.word	1074004488
 735 0334 0C020440 		.word	1074004492
 736 0338 18020440 		.word	1074004504
 737 033c 00030440 		.word	1074004736
 738 0340 966D0000 		.word	28054
 739 0344 08030440 		.word	1074004744
 740 0348 0C030440 		.word	1074004748
 741 034c 00040440 		.word	1074004992
 742 0350 31801800 		.word	1605681
 743 0354 08040440 		.word	1074005000
 744 0358 18040440 		.word	1074005016
 745 035c 00050440 		.word	1074005248
 746 0360 08050440 		.word	1074005256
 747 0364 18050440 		.word	1074005272
 748 0368 00070440 		.word	1074005760
 749 036c 18070440 		.word	1074005784
 750              		.cfi_endproc
 751              	.LFE8:
 752              		.size	cyfitter_cfg, .-cyfitter_cfg
 753              		.section	.rodata
 754              		.align	2
 755              		.set	.LANCHOR0,. + 0
 756              		.type	cfg_memset_list.4977, %object
 757              		.size	cfg_memset_list.4977, 12
 758              	cfg_memset_list.4977:
 759 0000 00300F40 		.word	1074737152
 760 0004 0008     		.short	2048
 761 0006 00400F40 		.4byte	1074741248
 762 000a 0008     		.short	2048
 763              		.type	cy_cfg_data_table.4972, %object
 764              		.size	cy_cfg_data_table.4972, 102
 765              	cy_cfg_data_table.4972:
 766 000c E2       		.byte	-30
 767 000d 08       		.byte	8
 768 000e EC       		.byte	-20
 769 000f 10       		.byte	16
 770 0010 38       		.byte	56
 771 0011 A8       		.byte	-88
 772 0012 3E       		.byte	62
 773 0013 54       		.byte	84
 774 0014 58       		.byte	88
 775 0015 04       		.byte	4
 776 0016 5F       		.byte	95
 777 0017 01       		.byte	1
 778 0018 1C       		.byte	28
 779 0019 10       		.byte	16
 780 001a 1D       		.byte	29
 781 001b 90       		.byte	-112
 782 001c 1F       		.byte	31
 783 001d 80       		.byte	-128
 784 001e 87       		.byte	-121
 785 001f 80       		.byte	-128
 786 0020 89       		.byte	-119
 787 0021 80       		.byte	-128
 788 0022 8C       		.byte	-116
 789 0023 10       		.byte	16
 790 0024 8D       		.byte	-115
ARM GAS  C:\Users\becca\AppData\Local\Temp\ccAhbELO.s 			page 25


 791 0025 10       		.byte	16
 792 0026 53       		.byte	83
 793 0027 20       		.byte	32
 794 0028 6B       		.byte	107
 795 0029 08       		.byte	8
 796 002a 87       		.byte	-121
 797 002b 08       		.byte	8
 798 002c D4       		.byte	-44
 799 002d 20       		.byte	32
 800 002e DA       		.byte	-38
 801 002f 40       		.byte	64
 802 0030 E2       		.byte	-30
 803 0031 10       		.byte	16
 804 0032 04       		.byte	4
 805 0033 01       		.byte	1
 806 0034 A7       		.byte	-89
 807 0035 20       		.byte	32
 808 0036 C0       		.byte	-64
 809 0037 20       		.byte	32
 810 0038 A7       		.byte	-89
 811 0039 20       		.byte	32
 812 003a B4       		.byte	-76
 813 003b 01       		.byte	1
 814 003c 87       		.byte	-121
 815 003d 20       		.byte	32
 816 003e A7       		.byte	-89
 817 003f 20       		.byte	32
 818 0040 E6       		.byte	-26
 819 0041 10       		.byte	16
 820 0042 1F       		.byte	31
 821 0043 40       		.byte	64
 822 0044 87       		.byte	-121
 823 0045 40       		.byte	64
 824 0046 C6       		.byte	-58
 825 0047 01       		.byte	1
 826 0048 38       		.byte	56
 827 0049 02       		.byte	2
 828 004a 3C       		.byte	60
 829 004b 08       		.byte	8
 830 004c 40       		.byte	64
 831 004d 01       		.byte	1
 832 004e 50       		.byte	80
 833 004f 04       		.byte	4
 834 0050 CE       		.byte	-50
 835 0051 03       		.byte	3
 836 0052 D0       		.byte	-48
 837 0053 08       		.byte	8
 838 0054 D4       		.byte	-44
 839 0055 04       		.byte	4
 840 0056 38       		.byte	56
 841 0057 02       		.byte	2
 842 0058 3C       		.byte	60
 843 0059 08       		.byte	8
 844 005a 94       		.byte	-108
 845 005b 0A       		.byte	10
 846 005c A4       		.byte	-92
 847 005d 04       		.byte	4
ARM GAS  C:\Users\becca\AppData\Local\Temp\ccAhbELO.s 			page 26


 848 005e B4       		.byte	-76
 849 005f 01       		.byte	1
 850 0060 CE       		.byte	-50
 851 0061 03       		.byte	3
 852 0062 EC       		.byte	-20
 853 0063 08       		.byte	8
 854 0064 88       		.byte	-120
 855 0065 04       		.byte	4
 856 0066 8C       		.byte	-116
 857 0067 05       		.byte	5
 858 0068 94       		.byte	-108
 859 0069 0A       		.byte	10
 860 006a A4       		.byte	-92
 861 006b 04       		.byte	4
 862 006c E0       		.byte	-32
 863 006d 0E       		.byte	14
 864 006e 02       		.byte	2
 865 006f 01       		.byte	1
 866 0070 11       		.byte	17
 867 0071 01       		.byte	1
 868 0072 0000     		.space	2
 869              		.type	cy_cfg_addr_table.4971, %object
 870              		.size	cy_cfg_addr_table.4971, 52
 871              	cy_cfg_addr_table.4971:
 872 0074 01310F40 		.word	1074737409
 873 0078 01350F40 		.word	1074738433
 874 007c 04360F40 		.word	1074738692
 875 0080 07370F40 		.word	1074738951
 876 0084 06400F40 		.word	1074741254
 877 0088 03410F40 		.word	1074741507
 878 008c 02420F40 		.word	1074741762
 879 0090 03430F40 		.word	1074742019
 880 0094 03440F40 		.word	1074742275
 881 0098 07450F40 		.word	1074742535
 882 009c 07460F40 		.word	1074742791
 883 00a0 05470F40 		.word	1074743045
 884 00a4 02600F40 		.word	1074749442
 885              		.text
 886              	.Letext0:
 887              		.file 2 "c:\\program files (x86)\\cypress\\psoc creator\\4.4\\psoc creator\\import\\gnu\\arm\\5.4.
 888              		.file 3 "Generated_Source\\PSoC4\\cytypes.h"
 889              		.file 4 "Generated_Source\\PSoC4\\CyLFClk.h"
 890              		.file 5 "Generated_Source\\PSoC4\\CyLib.h"