ARM GAS  C:\Users\shahnaz\AppData\Local\Temp\ccsSYMGo.s 			page 1


   1              		.syntax unified
   2              		.cpu cortex-m0
   3              		.fpu softvfp
   4              		.eabi_attribute 20, 1
   5              		.eabi_attribute 21, 1
   6              		.eabi_attribute 23, 3
   7              		.eabi_attribute 24, 1
   8              		.eabi_attribute 25, 1
   9              		.eabi_attribute 26, 1
  10              		.eabi_attribute 30, 1
  11              		.eabi_attribute 34, 0
  12              		.eabi_attribute 18, 4
  13              		.thumb
  14              		.syntax unified
  15              		.file	"main.c"
  16              		.text
  17              	.Ltext0:
  18              		.cfi_sections	.debug_frame
  19              		.section	.text.Initialize,"ax",%progbits
  20              		.align	2
  21              		.global	Initialize
  22              		.code	16
  23              		.thumb_func
  24              		.type	Initialize, %function
  25              	Initialize:
  26              	.LFB36:
  27              		.file 1 "main.c"
   1:main.c        **** /* ========================================
   2:main.c        ****  *
   3:main.c        ****  * Copyright YOUR COMPANY, THE YEAR
   4:main.c        ****  * All Rights Reserved
   5:main.c        ****  * UNPUBLISHED, LICENSED SOFTWARE.
   6:main.c        ****  *
   7:main.c        ****  * CONFIDENTIAL AND PROPRIETARY INFORMATION
   8:main.c        ****  * WHICH IS THE PROPERTY OF your company.
   9:main.c        ****  *
  10:main.c        ****  * ========================================
  11:main.c        **** */
  12:main.c        **** 
  13:main.c        **** #include <math.h>
  14:main.c        **** #include <stdint.h>
  15:main.c        **** #include <stdlib.h>
  16:main.c        **** #include <stdio.h>
  17:main.c        **** #include "cyapicallbacks.h"
  18:main.c        **** #include <CAN.h>
  19:main.c        **** #include "HindsightCAN/CANLibrary.h"
  20:main.c        **** //#include "HindsightCAN/CANScience.h"
  21:main.c        **** 
  22:main.c        **** #include <project.h>
  23:main.c        **** #include "HumTemp_I2C.h"
  24:main.c        **** #include "main.h"
  25:main.c        **** #include "TempHum_Lib.h"
  26:main.c        **** 
  27:main.c        **** // UART stuff
  28:main.c        **** char txData[TX_DATA_SIZE];
  29:main.c        **** 
  30:main.c        **** // CAN stuff
ARM GAS  C:\Users\shahnaz\AppData\Local\Temp\ccsSYMGo.s 			page 2


  31:main.c        **** CANPacket can_recieve;
  32:main.c        **** CANPacket can_send;
  33:main.c        **** uint8 address = 0;
  34:main.c        **** 
  35:main.c        **** int main(void)
  36:main.c        **** { 
  37:main.c        ****     Initialize();
  38:main.c        ****     
  39:main.c        ****     int err;
  40:main.c        ****     
  41:main.c        ****     for(;;)
  42:main.c        ****     {
  43:main.c        ****         err = 0;
  44:main.c        ****         
  45:main.c        ****         if (!PollAndReceiveCANPacket(&can_recieve)) {
  46:main.c        ****             err = ProcessCAN(&can_recieve, &can_send);
  47:main.c        ****         }
  48:main.c        ****         
  49:main.c        ****         /*
  50:main.c        ****         if (UART_SpiUartGetRxBufferSize()) {
  51:main.c        ****             DebugPrint(UART_UartGetByte());
  52:main.c        ****         }
  53:main.c        ****         */
  54:main.c        ****         CyDelay(10);
  55:main.c        ****     }
  56:main.c        **** }
  57:main.c        **** 
  58:main.c        **** void Initialize(void) {
  28              		.loc 1 58 0
  29              		.cfi_startproc
  30              		@ args = 0, pretend = 0, frame = 0
  31              		@ frame_needed = 0, uses_anonymous_args = 0
  32 0000 70B5     		push	{r4, r5, r6, lr}
  33              		.cfi_def_cfa_offset 16
  34              		.cfi_offset 4, -16
  35              		.cfi_offset 5, -12
  36              		.cfi_offset 6, -8
  37              		.cfi_offset 14, -4
  59:main.c        ****     uint32 err;
  60:main.c        ****     CyGlobalIntEnable; /* Enable global interrupts. LED arrays need this first */
  38              		.loc 1 60 0
  39              		.syntax divided
  40              	@ 60 "main.c" 1
  41 0002 62B6     		CPSIE   i
  42              	@ 0 "" 2
  61:main.c        ****     
  62:main.c        ****     sprintf(txData, "\r\nHello\r\n");
  43              		.loc 1 62 0
  44              		.thumb
  45              		.syntax unified
  46 0004 0F4C     		ldr	r4, .L2
  47 0006 0A22     		movs	r2, #10
  48 0008 0F49     		ldr	r1, .L2+4
  49 000a 2000     		movs	r0, r4
  50 000c FFF7FEFF 		bl	memcpy
  51              	.LVL0:
  63:main.c        ****     Print(txData);
ARM GAS  C:\Users\shahnaz\AppData\Local\Temp\ccsSYMGo.s 			page 3


  52              		.loc 1 63 0
  53 0010 2000     		movs	r0, r4
  54 0012 FFF7FEFF 		bl	UART_UartPutString
  55              	.LVL1:
  64:main.c        ****     
  65:main.c        ****     address = 0; // TODO replace with science sensor address
  56              		.loc 1 65 0
  57 0016 0D4D     		ldr	r5, .L2+8
  58 0018 0023     		movs	r3, #0
  59 001a 2B70     		strb	r3, [r5]
  66:main.c        ****     
  67:main.c        ****     UART_Start();
  60              		.loc 1 67 0
  61 001c FFF7FEFF 		bl	UART_Start
  62              	.LVL2:
  68:main.c        ****     SHT31_Init();
  63              		.loc 1 68 0
  64 0020 FFF7FEFF 		bl	SHT31_Init
  65              	.LVL3:
  69:main.c        ****     InitCAN(DEVICE_GROUP_SCIENCE, (int) address);
  66              		.loc 1 69 0
  67 0024 2978     		ldrb	r1, [r5]
  68 0026 0720     		movs	r0, #7
  69 0028 FFF7FEFF 		bl	InitCAN
  70              	.LVL4:
  70:main.c        ****     //Timer_Period_Reset_Start();
  71:main.c        ****     //isr_Period_Reset_StartEx(Period_Reset_Handler);
  72:main.c        ****     
  73:main.c        ****     sprintf(txData, "Address: %x \r\n", address);
  71              		.loc 1 73 0
  72 002c 2A78     		ldrb	r2, [r5]
  73 002e 0849     		ldr	r1, .L2+12
  74 0030 2000     		movs	r0, r4
  75 0032 FFF7FEFF 		bl	sprintf
  76              	.LVL5:
  74:main.c        ****     Print(txData);
  77              		.loc 1 74 0
  78 0036 2000     		movs	r0, r4
  79 0038 FFF7FEFF 		bl	UART_UartPutString
  80              	.LVL6:
  75:main.c        ****     
  76:main.c        ****     CyDelay(30); // ensure sensors are initialized
  81              		.loc 1 76 0
  82 003c 1E20     		movs	r0, #30
  83 003e FFF7FEFF 		bl	CyDelay
  84              	.LVL7:
  77:main.c        **** }
  85              		.loc 1 77 0
  86              		@ sp needed
  87 0042 70BD     		pop	{r4, r5, r6, pc}
  88              	.L3:
  89              		.align	2
  90              	.L2:
  91 0044 00000000 		.word	txData
  92 0048 00000000 		.word	.LC1
  93 004c 00000000 		.word	.LANCHOR0
  94 0050 0C000000 		.word	.LC4
ARM GAS  C:\Users\shahnaz\AppData\Local\Temp\ccsSYMGo.s 			page 4


  95              		.cfi_endproc
  96              	.LFE36:
  97              		.size	Initialize, .-Initialize
  98              		.section	.text.main,"ax",%progbits
  99              		.align	2
 100              		.global	main
 101              		.code	16
 102              		.thumb_func
 103              		.type	main, %function
 104              	main:
 105              	.LFB35:
  36:main.c        ****     Initialize();
 106              		.loc 1 36 0
 107              		.cfi_startproc
 108              		@ args = 0, pretend = 0, frame = 0
 109              		@ frame_needed = 0, uses_anonymous_args = 0
 110 0000 10B5     		push	{r4, lr}
 111              		.cfi_def_cfa_offset 8
 112              		.cfi_offset 4, -8
 113              		.cfi_offset 14, -4
  37:main.c        ****     
 114              		.loc 1 37 0
 115 0002 FFF7FEFF 		bl	Initialize
 116              	.LVL8:
 117              	.L6:
  45:main.c        ****             err = ProcessCAN(&can_recieve, &can_send);
 118              		.loc 1 45 0
 119 0006 0648     		ldr	r0, .L7
 120 0008 FFF7FEFF 		bl	PollAndReceiveCANPacket
 121              	.LVL9:
 122 000c 0028     		cmp	r0, #0
 123 000e 03D1     		bne	.L5
 124              	.LBB2:
  46:main.c        ****         }
 125              		.loc 1 46 0
 126 0010 0449     		ldr	r1, .L7+4
 127 0012 0348     		ldr	r0, .L7
 128 0014 FFF7FEFF 		bl	ProcessCAN
 129              	.LVL10:
 130              	.L5:
 131              	.LBE2:
  54:main.c        ****     }
 132              		.loc 1 54 0
 133 0018 0A20     		movs	r0, #10
 134 001a FFF7FEFF 		bl	CyDelay
 135              	.LVL11:
  55:main.c        **** }
 136              		.loc 1 55 0
 137 001e F2E7     		b	.L6
 138              	.L8:
 139              		.align	2
 140              	.L7:
 141 0020 00000000 		.word	can_recieve
 142 0024 00000000 		.word	can_send
 143              		.cfi_endproc
 144              	.LFE35:
 145              		.size	main, .-main
ARM GAS  C:\Users\shahnaz\AppData\Local\Temp\ccsSYMGo.s 			page 5


 146              		.global	address
 147              		.comm	can_send,12,4
 148              		.comm	can_recieve,12,4
 149              		.comm	txData,100,4
 150              		.section	.rodata.str1.4,"aMS",%progbits,1
 151              		.align	2
 152              	.LC1:
 153 0000 0D0A4865 		.ascii	"\015\012Hello\015\012\000"
 153      6C6C6F0D 
 153      0A00
 154 000a 0000     		.space	2
 155              	.LC4:
 156 000c 41646472 		.ascii	"Address: %x \015\012\000"
 156      6573733A 
 156      20257820 
 156      0D0A00
 157              		.bss
 158              		.set	.LANCHOR0,. + 0
 159              		.type	address, %object
 160              		.size	address, 1
 161              	address:
 162 0000 00       		.space	1
 163              		.text
 164              	.Letext0:
 165              		.file 2 "c:\\users\\shahnaz\\desktop\\psoc creator\\4.4\\psoc creator\\import\\gnu\\arm\\5.4.1\\ar
 166              		.file 3 "c:\\users\\shahnaz\\desktop\\psoc creator\\4.4\\psoc creator\\import\\gnu\\arm\\5.4.1\\ar
 167              		.file 4 "Generated_Source\\PSoC4/cytypes.h"
 168              		.file 5 "HindsightCAN/CANPacket.h"
 169              		.file 6 "Generated_Source\\PSoC4/UART_SPI_UART.h"
 170              		.file 7 "Generated_Source\\PSoC4/UART.h"
 171              		.file 8 "TempHum_Lib.h"
 172              		.file 9 "HindsightCAN/Port.h"
 173              		.file 10 "c:\\users\\shahnaz\\desktop\\psoc creator\\4.4\\psoc creator\\import\\gnu\\arm\\5.4.1\\a
 174              		.file 11 "Generated_Source\\PSoC4/CyLib.h"