ARM GAS  C:\Users\shahnaz\AppData\Local\Temp\ccsGVhvv.s 			page 1


   1              		.syntax unified
   2              		.cpu cortex-m0
   3              		.fpu softvfp
   4              		.eabi_attribute 20, 1
   5              		.eabi_attribute 21, 1
   6              		.eabi_attribute 23, 3
   7              		.eabi_attribute 24, 1
   8              		.eabi_attribute 25, 1
   9              		.eabi_attribute 26, 1
  10              		.eabi_attribute 30, 1
  11              		.eabi_attribute 34, 0
  12              		.eabi_attribute 18, 4
  13              		.thumb
  14              		.syntax unified
  15              		.file	"Science_CAN.c"
  16              		.text
  17              	.Ltext0:
  18              		.cfi_sections	.debug_frame
  19              		.section	.text.ProcessCAN,"ax",%progbits
  20              		.align	2
  21              		.global	ProcessCAN
  22              		.code	16
  23              		.thumb_func
  24              		.type	ProcessCAN, %function
  25              	ProcessCAN:
  26              	.LFB35:
  27              		.file 1 "Science_CAN.c"
   1:Science_CAN.c **** /* ========================================
   2:Science_CAN.c ****  *
   3:Science_CAN.c ****  * Copyright YOUR COMPANY, THE YEAR
   4:Science_CAN.c ****  * All Rights Reserved
   5:Science_CAN.c ****  * UNPUBLISHED, LICENSED SOFTWARE.
   6:Science_CAN.c ****  *
   7:Science_CAN.c ****  * CONFIDENTIAL AND PROPRIETARY INFORMATION
   8:Science_CAN.c ****  * WHICH IS THE PROPERTY OF your company.
   9:Science_CAN.c ****  *
  10:Science_CAN.c ****  * ========================================
  11:Science_CAN.c **** */
  12:Science_CAN.c **** 
  13:Science_CAN.c **** #include <stdio.h>
  14:Science_CAN.c **** #include <math.h>
  15:Science_CAN.c **** #include <CAN.h>
  16:Science_CAN.c **** #include <stdbool.h>
  17:Science_CAN.c **** #include "main.h"
  18:Science_CAN.c **** #include "TempHum_Lib.h"
  19:Science_CAN.c **** #include "Sensors.h"
  20:Science_CAN.c **** #include "Science_CAN.h"
  21:Science_CAN.c **** #include "HindsightCAN/Port.h"
  22:Science_CAN.c **** 
  23:Science_CAN.c **** 
  24:Science_CAN.c **** extern char txData[TX_DATA_SIZE];
  25:Science_CAN.c **** extern uint8 address;
  26:Science_CAN.c **** 
  27:Science_CAN.c **** //Reads from CAN FIFO and changes the state and mode accordingly
  28:Science_CAN.c **** int ProcessCAN(CANPacket* receivedPacket, CANPacket* packetToSend) {
  28              		.loc 1 28 0
  29              		.cfi_startproc
ARM GAS  C:\Users\shahnaz\AppData\Local\Temp\ccsGVhvv.s 			page 2


  30              		@ args = 0, pretend = 0, frame = 8
  31              		@ frame_needed = 0, uses_anonymous_args = 0
  32              	.LVL0:
  33 0000 F0B5     		push	{r4, r5, r6, r7, lr}
  34              		.cfi_def_cfa_offset 20
  35              		.cfi_offset 4, -20
  36              		.cfi_offset 5, -16
  37              		.cfi_offset 6, -12
  38              		.cfi_offset 7, -8
  39              		.cfi_offset 14, -4
  40 0002 85B0     		sub	sp, sp, #20
  41              		.cfi_def_cfa_offset 40
  42 0004 0400     		movs	r4, r0
  43 0006 0D00     		movs	r5, r1
  29:Science_CAN.c ****     uint16_t packageID = GetPacketID(receivedPacket);
  44              		.loc 1 29 0
  45 0008 FFF7FEFF 		bl	GetPacketID
  46              	.LVL1:
  47 000c 0600     		movs	r6, r0
  48              	.LVL2:
  30:Science_CAN.c ****     uint8_t sender_DG = GetSenderDeviceGroupCode(receivedPacket);
  49              		.loc 1 30 0
  50 000e 2000     		movs	r0, r4
  51 0010 FFF7FEFF 		bl	GetSenderDeviceGroupCode
  52              	.LVL3:
  53 0014 0290     		str	r0, [sp, #8]
  54              	.LVL4:
  31:Science_CAN.c ****     uint8_t sender_SN = GetSenderDeviceSerialNumber(receivedPacket);
  55              		.loc 1 31 0
  56 0016 2000     		movs	r0, r4
  57 0018 FFF7FEFF 		bl	GetSenderDeviceSerialNumber
  58              	.LVL5:
  59 001c 0390     		str	r0, [sp, #12]
  60              	.LVL6:
  32:Science_CAN.c ****     int32_t data = 0;
  33:Science_CAN.c ****     int err = 0;
  34:Science_CAN.c ****     float temp, hum;
  35:Science_CAN.c ****     bool status;
  36:Science_CAN.c ****     
  37:Science_CAN.c ****     switch(packageID){            
  61              		.loc 1 37 0
  62 001e 3004     		lsls	r0, r6, #16
  63 0020 000C     		lsrs	r0, r0, #16
  64 0022 F028     		cmp	r0, #240
  65 0024 02D0     		beq	.L3
  66 0026 F528     		cmp	r0, #245
  67 0028 05D0     		beq	.L4
  68 002a 2EE0     		b	.L14
  69              	.L3:
  38:Science_CAN.c ****         // Common Packets
  39:Science_CAN.c ****         
  40:Science_CAN.c ****         case(ID_ESTOP):
  41:Science_CAN.c ****             Print("\r\n\r\nSTOP\r\n\r\n");
  70              		.loc 1 41 0
  71 002c 1A48     		ldr	r0, .L15
  72 002e FFF7FEFF 		bl	UART_UartPutString
  73              	.LVL7:
ARM GAS  C:\Users\shahnaz\AppData\Local\Temp\ccsGVhvv.s 			page 3


  42:Science_CAN.c ****             err = ESTOP_ERR_GENERAL;
  74              		.loc 1 42 0
  75 0032 0020     		movs	r0, #0
  43:Science_CAN.c ****             break;
  76              		.loc 1 43 0
  77 0034 2EE0     		b	.L2
  78              	.L4:
  44:Science_CAN.c ****         
  45:Science_CAN.c ****         case(ID_TELEMETRY_PULL):            
  46:Science_CAN.c ****             switch(DecodeTelemetryType(receivedPacket))
  79              		.loc 1 46 0
  80 0036 2000     		movs	r0, r4
  81 0038 FFF7FEFF 		bl	DecodeTelemetryType
  82              	.LVL8:
  83 003c 1638     		subs	r0, r0, #22
  84 003e C3B2     		uxtb	r3, r0
  85 0040 052B     		cmp	r3, #5
  86 0042 10D8     		bhi	.L11
  87 0044 9800     		lsls	r0, r3, #2
  88 0046 154B     		ldr	r3, .L15+4
  89 0048 1B58     		ldr	r3, [r3, r0]
  90 004a 9F46     		mov	pc, r3
  91              		.section	.rodata
  92              		.align	2
  93              	.L7:
  94 0000 52000000 		.word	.L6
  95 0004 4C000000 		.word	.L8
  96 0008 5C000000 		.word	.L9
  97 000c 4C000000 		.word	.L8
  98 0010 4C000000 		.word	.L8
  99 0014 4C000000 		.word	.L8
 100              		.section	.text.ProcessCAN
 101              	.L8:
  33:Science_CAN.c ****     float temp, hum;
 102              		.loc 1 33 0
 103 004c 0026     		movs	r6, #0
 104              	.LVL9:
  47:Science_CAN.c ****             {                
  48:Science_CAN.c ****                 case(PACKET_TELEMETRY_SENSOR1):
  49:Science_CAN.c ****                     data = getTemp();
  50:Science_CAN.c ****                     break;
  51:Science_CAN.c ****                 case(PACKET_TELEMETRY_SENSOR2):
  52:Science_CAN.c ****                     data = 0; // TODO
 105              		.loc 1 52 0
 106 004e 0027     		movs	r7, #0
 107 0050 0BE0     		b	.L5
 108              	.LVL10:
 109              	.L6:
  49:Science_CAN.c ****                     break;
 110              		.loc 1 49 0
 111 0052 FFF7FEFF 		bl	getTemp
 112              	.LVL11:
 113 0056 0700     		movs	r7, r0
 114              	.LVL12:
  33:Science_CAN.c ****     float temp, hum;
 115              		.loc 1 33 0
 116 0058 0026     		movs	r6, #0
ARM GAS  C:\Users\shahnaz\AppData\Local\Temp\ccsGVhvv.s 			page 4


 117              	.LVL13:
  50:Science_CAN.c ****                 case(PACKET_TELEMETRY_SENSOR2):
 118              		.loc 1 50 0
 119 005a 06E0     		b	.L5
 120              	.LVL14:
 121              	.L9:
  53:Science_CAN.c ****                     break;
  54:Science_CAN.c ****                 case(PACKET_TELEMETRY_SENSOR3):
  55:Science_CAN.c ****                     data = getHum();
 122              		.loc 1 55 0
 123 005c FFF7FEFF 		bl	getHum
 124              	.LVL15:
 125 0060 0700     		movs	r7, r0
 126              	.LVL16:
  33:Science_CAN.c ****     float temp, hum;
 127              		.loc 1 33 0
 128 0062 0026     		movs	r6, #0
 129              	.LVL17:
  56:Science_CAN.c ****                     break;
 130              		.loc 1 56 0
 131 0064 01E0     		b	.L5
 132              	.LVL18:
 133              	.L11:
  57:Science_CAN.c ****                 case(PACKET_TELEMETRY_SENSOR4):
  58:Science_CAN.c ****                     data = 0; // TODO
  59:Science_CAN.c ****                     break;
  60:Science_CAN.c ****                 case(PACKET_TELEMETRY_SENSOR5):
  61:Science_CAN.c ****                     data = 0; // TODO
  62:Science_CAN.c ****                     break;
  63:Science_CAN.c ****                 case(PACKET_TELEMETRY_SENSOR6):
  64:Science_CAN.c ****                     data = 0; // TODO
  65:Science_CAN.c ****                     break;
  66:Science_CAN.c ****                 default:
  67:Science_CAN.c ****                     err = ERROR_INVALID_TTC;
 134              		.loc 1 67 0
 135 0066 1226     		movs	r6, #18
 136              	.LVL19:
  32:Science_CAN.c ****     int err = 0;
 137              		.loc 1 32 0
 138 0068 0027     		movs	r7, #0
 139              	.LVL20:
 140              	.L5:
  68:Science_CAN.c ****                     break;
  69:Science_CAN.c ****             }
  70:Science_CAN.c ****             
  71:Science_CAN.c ****             // Assemble and send packet
  72:Science_CAN.c ****             AssembleTelemetryReportPacket(packetToSend, sender_DG, sender_SN, receivedPacket->data[
 141              		.loc 1 72 0
 142 006a A379     		ldrb	r3, [r4, #6]
 143 006c 0097     		str	r7, [sp]
 144 006e 039A     		ldr	r2, [sp, #12]
 145 0070 0299     		ldr	r1, [sp, #8]
 146 0072 2800     		movs	r0, r5
 147 0074 FFF7FEFF 		bl	AssembleTelemetryReportPacket
 148              	.LVL21:
  73:Science_CAN.c ****             
  74:Science_CAN.c ****             if (err == 0 && data != -1)
ARM GAS  C:\Users\shahnaz\AppData\Local\Temp\ccsGVhvv.s 			page 5


 149              		.loc 1 74 0
 150 0078 002E     		cmp	r6, #0
 151 007a 08D1     		bne	.L12
 152              		.loc 1 74 0 is_stmt 0 discriminator 1
 153 007c 7B1C     		adds	r3, r7, #1
 154 007e 08D0     		beq	.L13
  75:Science_CAN.c ****                 SendCANPacket(packetToSend);
 155              		.loc 1 75 0 is_stmt 1
 156 0080 2800     		movs	r0, r5
 157 0082 FFF7FEFF 		bl	SendCANPacket
 158              	.LVL22:
 159 0086 3000     		movs	r0, r6
 160 0088 04E0     		b	.L2
 161              	.LVL23:
 162              	.L14:
  76:Science_CAN.c ****             
  77:Science_CAN.c ****             break;
  78:Science_CAN.c ****             
  79:Science_CAN.c ****         default: //recieved Packet with non-valid ID
  80:Science_CAN.c ****             return ERROR_INVALID_PACKET;
 163              		.loc 1 80 0
 164 008a 1320     		movs	r0, #19
 165 008c 02E0     		b	.L2
 166              	.LVL24:
 167              	.L12:
 168 008e 3000     		movs	r0, r6
 169 0090 00E0     		b	.L2
 170              	.L13:
 171 0092 3000     		movs	r0, r6
 172              	.LVL25:
 173              	.L2:
  81:Science_CAN.c ****     }
  82:Science_CAN.c ****     
  83:Science_CAN.c ****     return err;
  84:Science_CAN.c **** }
 174              		.loc 1 84 0
 175 0094 05B0     		add	sp, sp, #20
 176              		@ sp needed
 177              	.LVL26:
 178              	.LVL27:
 179 0096 F0BD     		pop	{r4, r5, r6, r7, pc}
 180              	.L16:
 181              		.align	2
 182              	.L15:
 183 0098 00000000 		.word	.LC0
 184 009c 00000000 		.word	.L7
 185              		.cfi_endproc
 186              	.LFE35:
 187              		.size	ProcessCAN, .-ProcessCAN
 188              		.section	.text.PrintCanPacket,"ax",%progbits
 189              		.align	2
 190              		.global	PrintCanPacket
 191              		.code	16
 192              		.thumb_func
 193              		.type	PrintCanPacket, %function
 194              	PrintCanPacket:
 195              	.LFB36:
ARM GAS  C:\Users\shahnaz\AppData\Local\Temp\ccsGVhvv.s 			page 6


  85:Science_CAN.c **** 
  86:Science_CAN.c **** void PrintCanPacket(CANPacket packet){
 196              		.loc 1 86 0
 197              		.cfi_startproc
 198              		@ args = 0, pretend = 0, frame = 16
 199              		@ frame_needed = 0, uses_anonymous_args = 0
 200 0000 30B5     		push	{r4, r5, lr}
 201              		.cfi_def_cfa_offset 12
 202              		.cfi_offset 4, -12
 203              		.cfi_offset 5, -8
 204              		.cfi_offset 14, -4
 205 0002 87B0     		sub	sp, sp, #28
 206              		.cfi_def_cfa_offset 40
 207 0004 0390     		str	r0, [sp, #12]
 208 0006 0491     		str	r1, [sp, #16]
 209 0008 0592     		str	r2, [sp, #20]
 210              	.LVL28:
 211              	.LBB2:
  87:Science_CAN.c ****     for(int i = 0; i < packet.dlc; i++ ) {
 212              		.loc 1 87 0
 213 000a 0023     		movs	r3, #0
 214 000c 0EE0     		b	.L18
 215              	.LVL29:
 216              	.L19:
  88:Science_CAN.c ****         sprintf(txData,"Byte%d %x   ", i+1, packet.data[i]);
 217              		.loc 1 88 0 discriminator 3
 218 000e 5C1C     		adds	r4, r3, #1
 219 0010 03AA     		add	r2, sp, #12
 220 0012 9446     		mov	ip, r2
 221 0014 6344     		add	r3, r3, ip
 222              	.LVL30:
 223 0016 DB78     		ldrb	r3, [r3, #3]
 224 0018 104D     		ldr	r5, .L20
 225 001a 2200     		movs	r2, r4
 226 001c 1049     		ldr	r1, .L20+4
 227 001e 2800     		movs	r0, r5
 228 0020 FFF7FEFF 		bl	sprintf
 229              	.LVL31:
  89:Science_CAN.c ****         Print(txData);
 230              		.loc 1 89 0 discriminator 3
 231 0024 2800     		movs	r0, r5
 232 0026 FFF7FEFF 		bl	UART_UartPutString
 233              	.LVL32:
  87:Science_CAN.c ****     for(int i = 0; i < packet.dlc; i++ ) {
 234              		.loc 1 87 0 discriminator 3
 235 002a 2300     		movs	r3, r4
 236              	.LVL33:
 237              	.L18:
  87:Science_CAN.c ****     for(int i = 0; i < packet.dlc; i++ ) {
 238              		.loc 1 87 0 is_stmt 0 discriminator 1
 239 002c 03AA     		add	r2, sp, #12
 240 002e 9278     		ldrb	r2, [r2, #2]
 241 0030 9342     		cmp	r3, r2
 242 0032 ECDB     		blt	.L19
 243              	.LBE2:
  90:Science_CAN.c ****     }
  91:Science_CAN.c **** 
ARM GAS  C:\Users\shahnaz\AppData\Local\Temp\ccsGVhvv.s 			page 7


  92:Science_CAN.c ****     sprintf(txData,"ID:%x %x %x\r\n",packet.id >> 10, 
 244              		.loc 1 92 0 is_stmt 1
 245 0034 03AB     		add	r3, sp, #12
 246              	.LVL34:
 247 0036 1988     		ldrh	r1, [r3]
 248 0038 8B09     		lsrs	r3, r1, #6
 249 003a 0F22     		movs	r2, #15
 250 003c 1340     		ands	r3, r2
 251 003e 8A0A     		lsrs	r2, r1, #10
 252 0040 064C     		ldr	r4, .L20
 253 0042 3F20     		movs	r0, #63
 254 0044 0140     		ands	r1, r0
 255 0046 0091     		str	r1, [sp]
 256 0048 0649     		ldr	r1, .L20+8
 257 004a 2000     		movs	r0, r4
 258 004c FFF7FEFF 		bl	sprintf
 259              	.LVL35:
  93:Science_CAN.c ****         (packet.id >> 6) & 0xF , packet.id & 0x3F);
  94:Science_CAN.c ****     Print(txData);
 260              		.loc 1 94 0
 261 0050 2000     		movs	r0, r4
 262 0052 FFF7FEFF 		bl	UART_UartPutString
 263              	.LVL36:
  95:Science_CAN.c **** }
 264              		.loc 1 95 0
 265 0056 07B0     		add	sp, sp, #28
 266              		@ sp needed
 267 0058 30BD     		pop	{r4, r5, pc}
 268              	.L21:
 269 005a C046     		.align	2
 270              	.L20:
 271 005c 00000000 		.word	txData
 272 0060 10000000 		.word	.LC3
 273 0064 20000000 		.word	.LC6
 274              		.cfi_endproc
 275              	.LFE36:
 276              		.size	PrintCanPacket, .-PrintCanPacket
 277              		.section	.rodata.str1.4,"aMS",%progbits,1
 278              		.align	2
 279              	.LC0:
 280 0000 0D0A0D0A 		.ascii	"\015\012\015\012STOP\015\012\015\012\000"
 280      53544F50 
 280      0D0A0D0A 
 280      00
 281 000d 000000   		.space	3
 282              	.LC3:
 283 0010 42797465 		.ascii	"Byte%d %x   \000"
 283      25642025 
 283      78202020 
 283      00
 284 001d 000000   		.space	3
 285              	.LC6:
 286 0020 49443A25 		.ascii	"ID:%x %x %x\015\012\000"
 286      78202578 
 286      2025780D 
 286      0A00
 287              		.text
ARM GAS  C:\Users\shahnaz\AppData\Local\Temp\ccsGVhvv.s 			page 8


 288              	.Letext0:
 289              		.file 2 "c:\\users\\shahnaz\\desktop\\psoc creator\\4.4\\psoc creator\\import\\gnu\\arm\\5.4.1\\ar
 290              		.file 3 "c:\\users\\shahnaz\\desktop\\psoc creator\\4.4\\psoc creator\\import\\gnu\\arm\\5.4.1\\ar
 291              		.file 4 "HindsightCAN/CANPacket.h"
 292              		.file 5 "Generated_Source\\PSoC4/UART_SPI_UART.h"
 293              		.file 6 "HindsightCAN/CANCommon.h"
 294              		.file 7 "Sensors.h"
 295              		.file 8 "HindsightCAN/Port.h"
 296              		.file 9 "c:\\users\\shahnaz\\desktop\\psoc creator\\4.4\\psoc creator\\import\\gnu\\arm\\5.4.1\\ar