ARM GAS  C:\Users\shahnaz\AppData\Local\Temp\ccbKg7ob.s 			page 1


   1              		.syntax unified
   2              		.cpu cortex-m0
   3              		.fpu softvfp
   4              		.eabi_attribute 20, 1
   5              		.eabi_attribute 21, 1
   6              		.eabi_attribute 23, 3
   7              		.eabi_attribute 24, 1
   8              		.eabi_attribute 25, 1
   9              		.eabi_attribute 26, 1
  10              		.eabi_attribute 30, 1
  11              		.eabi_attribute 34, 0
  12              		.eabi_attribute 18, 4
  13              		.thumb
  14              		.syntax unified
  15              		.file	"Sensors.c"
  16              		.text
  17              	.Ltext0:
  18              		.cfi_sections	.debug_frame
  19              		.global	__aeabi_f2iz
  20              		.section	.text.getTemp,"ax",%progbits
  21              		.align	2
  22              		.global	getTemp
  23              		.code	16
  24              		.thumb_func
  25              		.type	getTemp, %function
  26              	getTemp:
  27              	.LFB35:
  28              		.file 1 "Sensors.c"
   1:Sensors.c     **** #include <stdio.h>
   2:Sensors.c     **** #include <stdbool.h>
   3:Sensors.c     **** #include <math.h>
   4:Sensors.c     **** #include <TempHum_Lib.h>
   5:Sensors.c     **** #include <project.h>
   6:Sensors.c     **** #include <HumTemp_I2C.h>
   7:Sensors.c     **** 
   8:Sensors.c     **** int32_t getTemp(){
  29              		.loc 1 8 0
  30              		.cfi_startproc
  31              		@ args = 0, pretend = 0, frame = 72
  32              		@ frame_needed = 0, uses_anonymous_args = 0
  33 0000 00B5     		push	{lr}
  34              		.cfi_def_cfa_offset 4
  35              		.cfi_offset 14, -4
  36 0002 93B0     		sub	sp, sp, #76
  37              		.cfi_def_cfa_offset 80
   9:Sensors.c     ****     float temp, hum;
  10:Sensors.c     ****     bool status;
  11:Sensors.c     ****     status = SHT31_IsHeaterEnabled();
  38              		.loc 1 11 0
  39 0004 FFF7FEFF 		bl	SHT31_IsHeaterEnabled
  40              	.LVL0:
  12:Sensors.c     ****     if(!status){
  41              		.loc 1 12 0
  42 0008 0028     		cmp	r0, #0
  43 000a 15D0     		beq	.L3
  13:Sensors.c     ****         return -1;
  14:Sensors.c     ****     }
ARM GAS  C:\Users\shahnaz\AppData\Local\Temp\ccbKg7ob.s 			page 2


  15:Sensors.c     ****     status = SHT31_ReadTempHum(&temp, &hum);
  44              		.loc 1 15 0
  45 000c 10A9     		add	r1, sp, #64
  46 000e 11A8     		add	r0, sp, #68
  47              	.LVL1:
  48 0010 FFF7FEFF 		bl	SHT31_ReadTempHum
  49              	.LVL2:
  16:Sensors.c     ****     if(!status){
  50              		.loc 1 16 0
  51 0014 0028     		cmp	r0, #0
  52 0016 12D0     		beq	.L4
  17:Sensors.c     ****         return -1;
  18:Sensors.c     ****     }
  19:Sensors.c     ****      char buffer[64];
  20:Sensors.c     ****     snprintf(buffer, sizeof(buffer), "Temperature (degrees Celcius) = %d\t\t", (int) temp);
  53              		.loc 1 20 0
  54 0018 1198     		ldr	r0, [sp, #68]
  55              	.LVL3:
  56 001a FFF7FEFF 		bl	__aeabi_f2iz
  57              	.LVL4:
  58 001e 0300     		movs	r3, r0
  59 0020 094A     		ldr	r2, .L5
  60 0022 4021     		movs	r1, #64
  61 0024 6846     		mov	r0, sp
  62 0026 FFF7FEFF 		bl	snprintf
  63              	.LVL5:
  21:Sensors.c     ****     UART_UartPutString(buffer);
  64              		.loc 1 21 0
  65 002a 6846     		mov	r0, sp
  66 002c FFF7FEFF 		bl	UART_UartPutString
  67              	.LVL6:
  22:Sensors.c     ****     return (int32_t) temp;
  68              		.loc 1 22 0
  69 0030 1198     		ldr	r0, [sp, #68]
  70 0032 FFF7FEFF 		bl	__aeabi_f2iz
  71              	.LVL7:
  72 0036 04E0     		b	.L2
  73              	.LVL8:
  74              	.L3:
  13:Sensors.c     ****     }
  75              		.loc 1 13 0
  76 0038 0120     		movs	r0, #1
  77              	.LVL9:
  78 003a 4042     		rsbs	r0, r0, #0
  79 003c 01E0     		b	.L2
  80              	.LVL10:
  81              	.L4:
  17:Sensors.c     ****     }
  82              		.loc 1 17 0
  83 003e 0120     		movs	r0, #1
  84              	.LVL11:
  85 0040 4042     		rsbs	r0, r0, #0
  86              	.L2:
  23:Sensors.c     **** }
  87              		.loc 1 23 0
  88 0042 13B0     		add	sp, sp, #76
  89              		@ sp needed
ARM GAS  C:\Users\shahnaz\AppData\Local\Temp\ccbKg7ob.s 			page 3


  90 0044 00BD     		pop	{pc}
  91              	.L6:
  92 0046 C046     		.align	2
  93              	.L5:
  94 0048 00000000 		.word	.LC0
  95              		.cfi_endproc
  96              	.LFE35:
  97              		.size	getTemp, .-getTemp
  98              		.section	.text.getHum,"ax",%progbits
  99              		.align	2
 100              		.global	getHum
 101              		.code	16
 102              		.thumb_func
 103              		.type	getHum, %function
 104              	getHum:
 105              	.LFB36:
  24:Sensors.c     **** 
  25:Sensors.c     **** int32_t getHum(){
 106              		.loc 1 25 0
 107              		.cfi_startproc
 108              		@ args = 0, pretend = 0, frame = 72
 109              		@ frame_needed = 0, uses_anonymous_args = 0
 110 0000 00B5     		push	{lr}
 111              		.cfi_def_cfa_offset 4
 112              		.cfi_offset 14, -4
 113 0002 93B0     		sub	sp, sp, #76
 114              		.cfi_def_cfa_offset 80
  26:Sensors.c     ****     float temp, hum;
  27:Sensors.c     ****     bool status;
  28:Sensors.c     ****     status = SHT31_IsHeaterEnabled();
 115              		.loc 1 28 0
 116 0004 FFF7FEFF 		bl	SHT31_IsHeaterEnabled
 117              	.LVL12:
  29:Sensors.c     ****     if(!status){
 118              		.loc 1 29 0
 119 0008 0028     		cmp	r0, #0
 120 000a 15D0     		beq	.L9
  30:Sensors.c     ****         return -1;
  31:Sensors.c     ****     }
  32:Sensors.c     ****     status = SHT31_ReadTempHum(&temp, &hum);
 121              		.loc 1 32 0
 122 000c 10A9     		add	r1, sp, #64
 123 000e 11A8     		add	r0, sp, #68
 124              	.LVL13:
 125 0010 FFF7FEFF 		bl	SHT31_ReadTempHum
 126              	.LVL14:
  33:Sensors.c     ****     if(!status){
 127              		.loc 1 33 0
 128 0014 0028     		cmp	r0, #0
 129 0016 12D0     		beq	.L10
  34:Sensors.c     ****         return -1;
  35:Sensors.c     ****     }
  36:Sensors.c     ****      char buffer[64];
  37:Sensors.c     ****     snprintf(buffer, sizeof(buffer), "Temperature (degrees Celcius) = %d\t\t", (int) hum);
 130              		.loc 1 37 0
 131 0018 1098     		ldr	r0, [sp, #64]
 132              	.LVL15:
ARM GAS  C:\Users\shahnaz\AppData\Local\Temp\ccbKg7ob.s 			page 4


 133 001a FFF7FEFF 		bl	__aeabi_f2iz
 134              	.LVL16:
 135 001e 0300     		movs	r3, r0
 136 0020 094A     		ldr	r2, .L11
 137 0022 4021     		movs	r1, #64
 138 0024 6846     		mov	r0, sp
 139 0026 FFF7FEFF 		bl	snprintf
 140              	.LVL17:
  38:Sensors.c     ****     UART_UartPutString(buffer);
 141              		.loc 1 38 0
 142 002a 6846     		mov	r0, sp
 143 002c FFF7FEFF 		bl	UART_UartPutString
 144              	.LVL18:
  39:Sensors.c     ****     return (int32_t) hum;
 145              		.loc 1 39 0
 146 0030 1098     		ldr	r0, [sp, #64]
 147 0032 FFF7FEFF 		bl	__aeabi_f2iz
 148              	.LVL19:
 149 0036 04E0     		b	.L8
 150              	.LVL20:
 151              	.L9:
  30:Sensors.c     ****     }
 152              		.loc 1 30 0
 153 0038 0120     		movs	r0, #1
 154              	.LVL21:
 155 003a 4042     		rsbs	r0, r0, #0
 156 003c 01E0     		b	.L8
 157              	.LVL22:
 158              	.L10:
  34:Sensors.c     ****     }
 159              		.loc 1 34 0
 160 003e 0120     		movs	r0, #1
 161              	.LVL23:
 162 0040 4042     		rsbs	r0, r0, #0
 163              	.L8:
  40:Sensors.c     **** }
 164              		.loc 1 40 0
 165 0042 13B0     		add	sp, sp, #76
 166              		@ sp needed
 167 0044 00BD     		pop	{pc}
 168              	.L12:
 169 0046 C046     		.align	2
 170              	.L11:
 171 0048 00000000 		.word	.LC0
 172              		.cfi_endproc
 173              	.LFE36:
 174              		.size	getHum, .-getHum
 175              		.section	.rodata.str1.4,"aMS",%progbits,1
 176              		.align	2
 177              	.LC0:
 178 0000 54656D70 		.ascii	"Temperature (degrees Celcius) = %d\011\011\000"
 178      65726174 
 178      75726520 
 178      28646567 
 178      72656573 
 179              		.text
 180              	.Letext0:
ARM GAS  C:\Users\shahnaz\AppData\Local\Temp\ccbKg7ob.s 			page 5


 181              		.file 2 "c:\\users\\shahnaz\\desktop\\psoc creator\\4.4\\psoc creator\\import\\gnu\\arm\\5.4.1\\ar
 182              		.file 3 "c:\\users\\shahnaz\\desktop\\psoc creator\\4.4\\psoc creator\\import\\gnu\\arm\\5.4.1\\ar
 183              		.file 4 "./TempHum_Lib.h"
 184              		.file 5 "c:\\users\\shahnaz\\desktop\\psoc creator\\4.4\\psoc creator\\import\\gnu\\arm\\5.4.1\\ar
 185              		.file 6 "Generated_Source\\PSoC4/UART_SPI_UART.h"