ARM GAS  C:\Users\becca\AppData\Local\Temp\ccXx9XK4.s 			page 1


   1              		.syntax unified
   2              		.cpu cortex-m0
   3              		.fpu softvfp
   4              		.eabi_attribute 20, 1
   5              		.eabi_attribute 21, 1
   6              		.eabi_attribute 23, 3
   7              		.eabi_attribute 24, 1
   8              		.eabi_attribute 25, 1
   9              		.eabi_attribute 26, 1
  10              		.eabi_attribute 30, 1
  11              		.eabi_attribute 34, 0
  12              		.eabi_attribute 18, 4
  13              		.thumb
  14              		.syntax unified
  15              		.file	"library.c"
  16              		.text
  17              	.Ltext0:
  18              		.cfi_sections	.debug_frame
  19              		.section	.text.crc8,"ax",%progbits
  20              		.align	2
  21              		.code	16
  22              		.thumb_func
  23              		.type	crc8, %function
  24              	crc8:
  25              	.LFB34:
  26              		.file 1 "library.c"
   1:library.c     **** #include <project.h>
   2:library.c     **** #include <math.h>
   3:library.c     **** #include <library.h>
   4:library.c     **** #include <I2C.h>
   5:library.c     **** 
   6:library.c     **** // CRC-8 calculation for SHT31 (Polynomial 0x31)
   7:library.c     **** static uint8_t crc8(const uint8_t *data, int len) {
  27              		.loc 1 7 0
  28              		.cfi_startproc
  29              		@ args = 0, pretend = 0, frame = 0
  30              		@ frame_needed = 0, uses_anonymous_args = 0
  31              	.LVL0:
  32 0000 30B5     		push	{r4, r5, lr}
  33              		.cfi_def_cfa_offset 12
  34              		.cfi_offset 4, -12
  35              		.cfi_offset 5, -8
  36              		.cfi_offset 14, -4
  37 0002 0500     		movs	r5, r0
  38              	.LVL1:
  39              	.LBB2:
   8:library.c     ****     const uint8_t POLYNOMIAL = 0x31;
   9:library.c     ****     uint8_t crc = 0xFF;
  10:library.c     **** 
  11:library.c     ****     for (int j = 0; j < len; ++j) {
  40              		.loc 1 11 0
  41 0004 0024     		movs	r4, #0
  42              	.LBE2:
   9:library.c     **** 
  43              		.loc 1 9 0
  44 0006 FF20     		movs	r0, #255
  45              	.LVL2:
ARM GAS  C:\Users\becca\AppData\Local\Temp\ccXx9XK4.s 			page 2


  46              	.LBB4:
  47              		.loc 1 11 0
  48 0008 11E0     		b	.L2
  49              	.LVL3:
  50              	.L7:
  12:library.c     ****         crc ^= data[j];
  51              		.loc 1 12 0
  52 000a 2B5D     		ldrb	r3, [r5, r4]
  53 000c 5840     		eors	r0, r3
  54              	.LVL4:
  55              	.LBB3:
  13:library.c     ****         for (int i = 0; i < 8; ++i) {
  56              		.loc 1 13 0
  57 000e 0023     		movs	r3, #0
  58 0010 0AE0     		b	.L3
  59              	.LVL5:
  60              	.L6:
  14:library.c     ****             crc = (crc & 0x80) ? (crc << 1) ^ POLYNOMIAL : (crc << 1);
  61              		.loc 1 14 0
  62 0012 42B2     		sxtb	r2, r0
  63 0014 002A     		cmp	r2, #0
  64 0016 04DA     		bge	.L4
  65              		.loc 1 14 0 is_stmt 0 discriminator 1
  66 0018 4000     		lsls	r0, r0, #1
  67              	.LVL6:
  68 001a 3122     		movs	r2, #49
  69              	.LVL7:
  70 001c 5040     		eors	r0, r2
  71 001e C0B2     		uxtb	r0, r0
  72 0020 01E0     		b	.L5
  73              	.LVL8:
  74              	.L4:
  75              		.loc 1 14 0 discriminator 2
  76 0022 4000     		lsls	r0, r0, #1
  77              	.LVL9:
  78 0024 C0B2     		uxtb	r0, r0
  79              	.LVL10:
  80              	.L5:
  13:library.c     ****         for (int i = 0; i < 8; ++i) {
  81              		.loc 1 13 0 is_stmt 1 discriminator 4
  82 0026 0133     		adds	r3, r3, #1
  83              	.LVL11:
  84              	.L3:
  13:library.c     ****         for (int i = 0; i < 8; ++i) {
  85              		.loc 1 13 0 is_stmt 0 discriminator 2
  86 0028 072B     		cmp	r3, #7
  87 002a F2DD     		ble	.L6
  88              	.LBE3:
  11:library.c     ****         crc ^= data[j];
  89              		.loc 1 11 0 is_stmt 1 discriminator 2
  90 002c 0134     		adds	r4, r4, #1
  91              	.LVL12:
  92              	.L2:
  11:library.c     ****         crc ^= data[j];
  93              		.loc 1 11 0 is_stmt 0 discriminator 1
  94 002e 8C42     		cmp	r4, r1
  95 0030 EBDB     		blt	.L7
ARM GAS  C:\Users\becca\AppData\Local\Temp\ccXx9XK4.s 			page 3


  96              	.LBE4:
  15:library.c     ****         }
  16:library.c     ****     }
  17:library.c     ****     return crc;
  18:library.c     **** }
  97              		.loc 1 18 0 is_stmt 1
  98              		@ sp needed
  99              	.LVL13:
 100              	.LVL14:
 101 0032 30BD     		pop	{r4, r5, pc}
 102              		.cfi_endproc
 103              	.LFE34:
 104              		.size	crc8, .-crc8
 105              		.section	.text.writeCommand,"ax",%progbits
 106              		.align	2
 107              		.code	16
 108              		.thumb_func
 109              		.type	writeCommand, %function
 110              	writeCommand:
 111              	.LFB35:
  19:library.c     **** 
  20:library.c     **** static bool writeCommand(uint16_t command) {
 112              		.loc 1 20 0
 113              		.cfi_startproc
 114              		@ args = 0, pretend = 0, frame = 64
 115              		@ frame_needed = 0, uses_anonymous_args = 0
 116              	.LVL15:
 117 0000 70B5     		push	{r4, r5, r6, lr}
 118              		.cfi_def_cfa_offset 16
 119              		.cfi_offset 4, -16
 120              		.cfi_offset 5, -12
 121              		.cfi_offset 6, -8
 122              		.cfi_offset 14, -4
 123 0002 90B0     		sub	sp, sp, #64
 124              		.cfi_def_cfa_offset 80
  21:library.c     ****     
  22:library.c     ****     uint8_t cmd[2];
  23:library.c     ****     cmd[0] = command >> 8;
 125              		.loc 1 23 0
 126 0004 060A     		lsrs	r6, r0, #8
  24:library.c     ****     cmd[1] = command & 0xFF;
 127              		.loc 1 24 0
 128 0006 C4B2     		uxtb	r4, r0
 129              	.LVL16:
  25:library.c     ****     
  26:library.c     ****     uint8_t err = 0;
  27:library.c     ****     uint8_t err2 = 0;
  28:library.c     ****     
  29:library.c     ****     // Ensure bus is free (clear any old errors)
  30:library.c     ****     I2C_I2CMasterClearStatus();
 130              		.loc 1 30 0
 131 0008 FFF7FEFF 		bl	I2C_I2CMasterClearStatus
 132              	.LVL17:
  31:library.c     **** 
  32:library.c     ****     // 1) Send a true START for the first byte
  33:library.c     ****     err = I2C_I2CMasterSendStart(SHT31_I2C_ADDR, I2C_I2C_WRITE_XFER_MODE, TIMEOUT);
 133              		.loc 1 33 0
ARM GAS  C:\Users\becca\AppData\Local\Temp\ccXx9XK4.s 			page 4


 134 000c 1422     		movs	r2, #20
 135 000e 0021     		movs	r1, #0
 136 0010 4420     		movs	r0, #68
 137 0012 FFF7FEFF 		bl	I2C_I2CMasterSendStart
 138              	.LVL18:
 139 0016 0500     		movs	r5, r0
 140 0018 C3B2     		uxtb	r3, r0
 141              	.LVL19:
  34:library.c     ****     
  35:library.c     ****     char buffer[64];
  36:library.c     ****     
  37:library.c     ****     if(err != I2C_I2C_MSTR_NO_ERROR){
 142              		.loc 1 37 0
 143 001a 002B     		cmp	r3, #0
 144 001c 0BD0     		beq	.L9
 145              	.LBB5:
  38:library.c     ****         UART_UartPutString("Error with write Command sendStart\r\n");
 146              		.loc 1 38 0
 147 001e 1E48     		ldr	r0, .L14
 148 0020 FFF7FEFF 		bl	UART_UartPutString
 149              	.LVL20:
  39:library.c     ****         sprintf(buffer, "err = %d\n", err);
 150              		.loc 1 39 0
 151 0024 FF22     		movs	r2, #255
 152 0026 2A40     		ands	r2, r5
 153 0028 1C49     		ldr	r1, .L14+4
 154 002a 6846     		mov	r0, sp
 155 002c FFF7FEFF 		bl	sprintf
 156              	.LVL21:
  40:library.c     ****         UART_UartPutString(buffer);
 157              		.loc 1 40 0
 158 0030 6846     		mov	r0, sp
 159 0032 FFF7FEFF 		bl	UART_UartPutString
 160              	.LVL22:
 161              	.L9:
 162              	.LBE5:
  41:library.c     ****         
  42:library.c     ****     }
  43:library.c     ****     
  44:library.c     ****     err = I2C_I2CMasterWriteByte(cmd[0], TIMEOUT);
 163              		.loc 1 44 0
 164 0036 1421     		movs	r1, #20
 165 0038 3000     		movs	r0, r6
 166 003a FFF7FEFF 		bl	I2C_I2CMasterWriteByte
 167              	.LVL23:
 168 003e 0500     		movs	r5, r0
 169 0040 C6B2     		uxtb	r6, r0
 170              	.LVL24:
  45:library.c     ****     
  46:library.c     ****     
  47:library.c     ****     err2 = I2C_I2CMasterWriteByte(cmd[1], TIMEOUT);
 171              		.loc 1 47 0
 172 0042 1421     		movs	r1, #20
 173 0044 2000     		movs	r0, r4
 174 0046 FFF7FEFF 		bl	I2C_I2CMasterWriteByte
 175              	.LVL25:
 176 004a C4B2     		uxtb	r4, r0
ARM GAS  C:\Users\becca\AppData\Local\Temp\ccXx9XK4.s 			page 5


 177              	.LVL26:
  48:library.c     ****     
  49:library.c     **** 
  50:library.c     ****     if(err != I2C_I2C_MSTR_NO_ERROR){
 178              		.loc 1 50 0
 179 004c 002E     		cmp	r6, #0
 180 004e 0BD0     		beq	.L10
 181              	.LBB6:
  51:library.c     ****         UART_UartPutString("Error with writeCommand: writeByte\r\n");
 182              		.loc 1 51 0
 183 0050 1348     		ldr	r0, .L14+8
 184 0052 FFF7FEFF 		bl	UART_UartPutString
 185              	.LVL27:
  52:library.c     ****         sprintf(buffer, "err = %d\n", err);
 186              		.loc 1 52 0
 187 0056 FF22     		movs	r2, #255
 188 0058 2A40     		ands	r2, r5
 189 005a 1049     		ldr	r1, .L14+4
 190 005c 6846     		mov	r0, sp
 191 005e FFF7FEFF 		bl	sprintf
 192              	.LVL28:
  53:library.c     ****         UART_UartPutString(buffer);
 193              		.loc 1 53 0
 194 0062 6846     		mov	r0, sp
 195 0064 FFF7FEFF 		bl	UART_UartPutString
 196              	.LVL29:
 197              	.L10:
 198              	.LBE6:
  54:library.c     ****     }
  55:library.c     ****         if(err2 != I2C_I2C_MSTR_NO_ERROR){
 199              		.loc 1 55 0
 200 0068 002C     		cmp	r4, #0
 201 006a 0BD0     		beq	.L11
 202              	.LBB7:
  56:library.c     ****         UART_UartPutString("Error with writeCommand: writeByte2\r\n");
 203              		.loc 1 56 0
 204 006c 0D48     		ldr	r0, .L14+12
 205 006e FFF7FEFF 		bl	UART_UartPutString
 206              	.LVL30:
  57:library.c     ****         sprintf(buffer, "err = %d\n", err);
 207              		.loc 1 57 0
 208 0072 FF22     		movs	r2, #255
 209 0074 2A40     		ands	r2, r5
 210 0076 0949     		ldr	r1, .L14+4
 211 0078 6846     		mov	r0, sp
 212 007a FFF7FEFF 		bl	sprintf
 213              	.LVL31:
  58:library.c     ****         UART_UartPutString(buffer);
 214              		.loc 1 58 0
 215 007e 6846     		mov	r0, sp
 216 0080 FFF7FEFF 		bl	UART_UartPutString
 217              	.LVL32:
 218              	.L11:
 219              	.LBE7:
  59:library.c     ****     }
  60:library.c     ****         
  61:library.c     ****     if (err != I2C_I2C_MSTR_NO_ERROR)
ARM GAS  C:\Users\becca\AppData\Local\Temp\ccXx9XK4.s 			page 6


 220              		.loc 1 61 0
 221 0084 002E     		cmp	r6, #0
 222 0086 04D1     		bne	.L13
  62:library.c     ****         return false;
  63:library.c     ****     
  64:library.c     ****     I2C_I2CMasterSendStop(TIMEOUT);
 223              		.loc 1 64 0
 224 0088 1420     		movs	r0, #20
 225 008a FFF7FEFF 		bl	I2C_I2CMasterSendStop
 226              	.LVL33:
  65:library.c     ****     
  66:library.c     ****     return true;
 227              		.loc 1 66 0
 228 008e 0120     		movs	r0, #1
 229 0090 00E0     		b	.L12
 230              	.L13:
  62:library.c     ****         return false;
 231              		.loc 1 62 0
 232 0092 0020     		movs	r0, #0
 233              	.L12:
  67:library.c     **** }
 234              		.loc 1 67 0
 235 0094 10B0     		add	sp, sp, #64
 236              		@ sp needed
 237              	.LVL34:
 238              	.LVL35:
 239 0096 70BD     		pop	{r4, r5, r6, pc}
 240              	.L15:
 241              		.align	2
 242              	.L14:
 243 0098 00000000 		.word	.LC0
 244 009c 28000000 		.word	.LC2
 245 00a0 34000000 		.word	.LC4
 246 00a4 5C000000 		.word	.LC6
 247              		.cfi_endproc
 248              	.LFE35:
 249              		.size	writeCommand, .-writeCommand
 250              		.section	.text.SHT31_ReadStatus,"ax",%progbits
 251              		.align	2
 252              		.global	SHT31_ReadStatus
 253              		.code	16
 254              		.thumb_func
 255              		.type	SHT31_ReadStatus, %function
 256              	SHT31_ReadStatus:
 257              	.LFB37:
  68:library.c     **** 
  69:library.c     **** 
  70:library.c     **** bool SHT31_Init() {
  71:library.c     ****     uint8_t status = 0;
  72:library.c     ****     I2C_Start();
  73:library.c     ****     
  74:library.c     ****     writeCommand(SHT31_SOFTRESET);
  75:library.c     ****     
  76:library.c     ****     CyDelay(10);
  77:library.c     **** 
  78:library.c     ****     return (SHT31_ReadStatus() != 0xFFFF);
  79:library.c     **** }
ARM GAS  C:\Users\becca\AppData\Local\Temp\ccXx9XK4.s 			page 7


  80:library.c     **** 
  81:library.c     **** uint16_t SHT31_ReadStatus(void) {
 258              		.loc 1 81 0
 259              		.cfi_startproc
 260              		@ args = 0, pretend = 0, frame = 8
 261              		@ frame_needed = 0, uses_anonymous_args = 0
 262 0000 10B5     		push	{r4, lr}
 263              		.cfi_def_cfa_offset 8
 264              		.cfi_offset 4, -8
 265              		.cfi_offset 14, -4
 266 0002 82B0     		sub	sp, sp, #8
 267              		.cfi_def_cfa_offset 16
 268              	.LVL36:
  82:library.c     ****     uint8_t err = 0;
  83:library.c     ****     
  84:library.c     ****     if(!writeCommand(SHT31_READSTATUS)){
 269              		.loc 1 84 0
 270 0004 2148     		ldr	r0, .L20
 271 0006 FFF7FEFF 		bl	writeCommand
 272              	.LVL37:
 273 000a 0028     		cmp	r0, #0
 274 000c 02D1     		bne	.L17
  85:library.c     ****         UART_UartPutString("Error with Read Status: writeCommand\r\n");
 275              		.loc 1 85 0
 276 000e 2048     		ldr	r0, .L20+4
 277 0010 FFF7FEFF 		bl	UART_UartPutString
 278              	.LVL38:
 279              	.L17:
  86:library.c     ****     }
  87:library.c     **** 
  88:library.c     ****     I2C_I2CMasterClearStatus();
 280              		.loc 1 88 0
 281 0014 FFF7FEFF 		bl	I2C_I2CMasterClearStatus
 282              	.LVL39:
  89:library.c     ****     
  90:library.c     ****     err = I2C_I2CMasterSendStart(SHT31_I2C_ADDR, I2C_I2C_READ_XFER_MODE, TIMEOUT);
 283              		.loc 1 90 0
 284 0018 1422     		movs	r2, #20
 285 001a 0121     		movs	r1, #1
 286 001c 4420     		movs	r0, #68
 287 001e FFF7FEFF 		bl	I2C_I2CMasterSendStart
 288              	.LVL40:
 289 0022 C4B2     		uxtb	r4, r0
 290              	.LVL41:
  91:library.c     ****     
  92:library.c     ****     uint8_t data[3] = {0};
 291              		.loc 1 92 0
 292 0024 0322     		movs	r2, #3
 293 0026 0021     		movs	r1, #0
 294 0028 01A8     		add	r0, sp, #4
 295 002a FFF7FEFF 		bl	memset
 296              	.LVL42:
  93:library.c     ****     
  94:library.c     ****     if(err != I2C_I2C_MSTR_NO_ERROR){
 297              		.loc 1 94 0
 298 002e 002C     		cmp	r4, #0
 299 0030 02D0     		beq	.L18
ARM GAS  C:\Users\becca\AppData\Local\Temp\ccXx9XK4.s 			page 8


  95:library.c     ****         UART_UartPutString("Error with Read Status: SendStart\r\n");
 300              		.loc 1 95 0
 301 0032 1848     		ldr	r0, .L20+8
 302 0034 FFF7FEFF 		bl	UART_UartPutString
 303              	.LVL43:
 304              	.L18:
  96:library.c     ****     }
  97:library.c     ****     
  98:library.c     ****     err = I2C_I2CMasterReadByte(I2C_I2C_ACK_DATA, &data[0], TIMEOUT);
 305              		.loc 1 98 0
 306 0038 1422     		movs	r2, #20
 307 003a 01A9     		add	r1, sp, #4
 308 003c 0020     		movs	r0, #0
 309 003e FFF7FEFF 		bl	I2C_I2CMasterReadByte
 310              	.LVL44:
  99:library.c     ****     CyDelay(50);
 311              		.loc 1 99 0
 312 0042 3220     		movs	r0, #50
 313 0044 FFF7FEFF 		bl	CyDelay
 314              	.LVL45:
 100:library.c     ****     err = I2C_I2CMasterReadByte(I2C_I2C_ACK_DATA, &data[1], TIMEOUT);
 315              		.loc 1 100 0
 316 0048 1422     		movs	r2, #20
 317 004a 6B46     		mov	r3, sp
 318 004c 591D     		adds	r1, r3, #5
 319 004e 0020     		movs	r0, #0
 320 0050 FFF7FEFF 		bl	I2C_I2CMasterReadByte
 321              	.LVL46:
 101:library.c     ****     CyDelay(50);
 322              		.loc 1 101 0
 323 0054 3220     		movs	r0, #50
 324 0056 FFF7FEFF 		bl	CyDelay
 325              	.LVL47:
 102:library.c     ****     err = I2C_I2CMasterReadByte(I2C_I2C_NAK_DATA, &data[2], TIMEOUT);
 326              		.loc 1 102 0
 327 005a 1422     		movs	r2, #20
 328 005c 6B46     		mov	r3, sp
 329 005e 991D     		adds	r1, r3, #6
 330 0060 0120     		movs	r0, #1
 331 0062 FFF7FEFF 		bl	I2C_I2CMasterReadByte
 332              	.LVL48:
 333 0066 C4B2     		uxtb	r4, r0
 334              	.LVL49:
 103:library.c     ****     CyDelay(50);
 335              		.loc 1 103 0
 336 0068 3220     		movs	r0, #50
 337 006a FFF7FEFF 		bl	CyDelay
 338              	.LVL50:
 104:library.c     ****     
 105:library.c     ****     I2C_I2CMasterSendStop(TIMEOUT);
 339              		.loc 1 105 0
 340 006e 1420     		movs	r0, #20
 341 0070 FFF7FEFF 		bl	I2C_I2CMasterSendStop
 342              	.LVL51:
 106:library.c     ****     
 107:library.c     ****     if(err != I2C_I2C_MSTR_NO_ERROR){
 343              		.loc 1 107 0
ARM GAS  C:\Users\becca\AppData\Local\Temp\ccXx9XK4.s 			page 9


 344 0074 002C     		cmp	r4, #0
 345 0076 02D0     		beq	.L19
 108:library.c     ****          UART_UartPutString("Error with Read Status: ReadBuf\r\n");
 346              		.loc 1 108 0
 347 0078 0748     		ldr	r0, .L20+12
 348 007a FFF7FEFF 		bl	UART_UartPutString
 349              	.LVL52:
 350              	.L19:
 109:library.c     ****     }
 110:library.c     ****     
 111:library.c     ****     uint16_t status = ((uint16_t)data[0] << 8) | data[1];
 351              		.loc 1 111 0
 352 007e 01AB     		add	r3, sp, #4
 353 0080 1878     		ldrb	r0, [r3]
 354 0082 0002     		lsls	r0, r0, #8
 355 0084 5B78     		ldrb	r3, [r3, #1]
 356 0086 1843     		orrs	r0, r3
 357              	.LVL53:
 112:library.c     ****     
 113:library.c     ****     return status;
 114:library.c     **** }
 358              		.loc 1 114 0
 359 0088 02B0     		add	sp, sp, #8
 360              		@ sp needed
 361              	.LVL54:
 362 008a 10BD     		pop	{r4, pc}
 363              	.L21:
 364              		.align	2
 365              	.L20:
 366 008c 2DF30000 		.word	62253
 367 0090 84000000 		.word	.LC8
 368 0094 AC000000 		.word	.LC10
 369 0098 D0000000 		.word	.LC12
 370              		.cfi_endproc
 371              	.LFE37:
 372              		.size	SHT31_ReadStatus, .-SHT31_ReadStatus
 373              		.section	.text.SHT31_Init,"ax",%progbits
 374              		.align	2
 375              		.global	SHT31_Init
 376              		.code	16
 377              		.thumb_func
 378              		.type	SHT31_Init, %function
 379              	SHT31_Init:
 380              	.LFB36:
  70:library.c     ****     uint8_t status = 0;
 381              		.loc 1 70 0
 382              		.cfi_startproc
 383              		@ args = 0, pretend = 0, frame = 0
 384              		@ frame_needed = 0, uses_anonymous_args = 0
 385 0000 10B5     		push	{r4, lr}
 386              		.cfi_def_cfa_offset 8
 387              		.cfi_offset 4, -8
 388              		.cfi_offset 14, -4
 389              	.LVL55:
  72:library.c     ****     
 390              		.loc 1 72 0
 391 0002 FFF7FEFF 		bl	I2C_Start
ARM GAS  C:\Users\becca\AppData\Local\Temp\ccXx9XK4.s 			page 10


 392              	.LVL56:
  74:library.c     ****     
 393              		.loc 1 74 0
 394 0006 0748     		ldr	r0, .L23
 395 0008 FFF7FEFF 		bl	writeCommand
 396              	.LVL57:
  76:library.c     **** 
 397              		.loc 1 76 0
 398 000c 0A20     		movs	r0, #10
 399 000e FFF7FEFF 		bl	CyDelay
 400              	.LVL58:
  78:library.c     **** }
 401              		.loc 1 78 0
 402 0012 FFF7FEFF 		bl	SHT31_ReadStatus
 403              	.LVL59:
 404 0016 044B     		ldr	r3, .L23+4
 405 0018 9C46     		mov	ip, r3
 406 001a 6044     		add	r0, r0, ip
 407 001c 431E     		subs	r3, r0, #1
 408 001e 9841     		sbcs	r0, r0, r3
 409 0020 C0B2     		uxtb	r0, r0
  79:library.c     **** 
 410              		.loc 1 79 0
 411              		@ sp needed
 412 0022 10BD     		pop	{r4, pc}
 413              	.L24:
 414              		.align	2
 415              	.L23:
 416 0024 A2300000 		.word	12450
 417 0028 0100FFFF 		.word	-65535
 418              		.cfi_endproc
 419              	.LFE36:
 420              		.size	SHT31_Init, .-SHT31_Init
 421              		.section	.text.SHT31_Reset,"ax",%progbits
 422              		.align	2
 423              		.global	SHT31_Reset
 424              		.code	16
 425              		.thumb_func
 426              		.type	SHT31_Reset, %function
 427              	SHT31_Reset:
 428              	.LFB38:
 115:library.c     **** 
 116:library.c     **** void SHT31_Reset(void) {
 429              		.loc 1 116 0
 430              		.cfi_startproc
 431              		@ args = 0, pretend = 0, frame = 0
 432              		@ frame_needed = 0, uses_anonymous_args = 0
 433 0000 10B5     		push	{r4, lr}
 434              		.cfi_def_cfa_offset 8
 435              		.cfi_offset 4, -8
 436              		.cfi_offset 14, -4
 117:library.c     ****     writeCommand(SHT31_SOFTRESET);
 437              		.loc 1 117 0
 438 0002 0348     		ldr	r0, .L26
 439 0004 FFF7FEFF 		bl	writeCommand
 440              	.LVL60:
 118:library.c     ****     CyDelay(10);
ARM GAS  C:\Users\becca\AppData\Local\Temp\ccXx9XK4.s 			page 11


 441              		.loc 1 118 0
 442 0008 0A20     		movs	r0, #10
 443 000a FFF7FEFF 		bl	CyDelay
 444              	.LVL61:
 119:library.c     **** }
 445              		.loc 1 119 0
 446              		@ sp needed
 447 000e 10BD     		pop	{r4, pc}
 448              	.L27:
 449              		.align	2
 450              	.L26:
 451 0010 A2300000 		.word	12450
 452              		.cfi_endproc
 453              	.LFE38:
 454              		.size	SHT31_Reset, .-SHT31_Reset
 455              		.section	.text.SHT31_Heater,"ax",%progbits
 456              		.align	2
 457              		.global	SHT31_Heater
 458              		.code	16
 459              		.thumb_func
 460              		.type	SHT31_Heater, %function
 461              	SHT31_Heater:
 462              	.LFB39:
 120:library.c     **** 
 121:library.c     **** void SHT31_Heater(bool enable) {
 463              		.loc 1 121 0
 464              		.cfi_startproc
 465              		@ args = 0, pretend = 0, frame = 0
 466              		@ frame_needed = 0, uses_anonymous_args = 0
 467              	.LVL62:
 468 0000 10B5     		push	{r4, lr}
 469              		.cfi_def_cfa_offset 8
 470              		.cfi_offset 4, -8
 471              		.cfi_offset 14, -4
 122:library.c     ****     writeCommand(enable ? SHT31_HEATEREN : SHT31_HEATERDIS);
 472              		.loc 1 122 0
 473 0002 0028     		cmp	r0, #0
 474 0004 01D0     		beq	.L30
 475 0006 0448     		ldr	r0, .L31
 476              	.LVL63:
 477 0008 00E0     		b	.L29
 478              	.LVL64:
 479              	.L30:
 480 000a 0448     		ldr	r0, .L31+4
 481              	.LVL65:
 482              	.L29:
 483              		.loc 1 122 0 is_stmt 0 discriminator 4
 484 000c FFF7FEFF 		bl	writeCommand
 485              	.LVL66:
 123:library.c     ****     CyDelay(1);
 486              		.loc 1 123 0 is_stmt 1 discriminator 4
 487 0010 0120     		movs	r0, #1
 488 0012 FFF7FEFF 		bl	CyDelay
 489              	.LVL67:
 124:library.c     **** }
 490              		.loc 1 124 0 discriminator 4
 491              		@ sp needed
ARM GAS  C:\Users\becca\AppData\Local\Temp\ccXx9XK4.s 			page 12


 492 0016 10BD     		pop	{r4, pc}
 493              	.L32:
 494              		.align	2
 495              	.L31:
 496 0018 6D300000 		.word	12397
 497 001c 66300000 		.word	12390
 498              		.cfi_endproc
 499              	.LFE39:
 500              		.size	SHT31_Heater, .-SHT31_Heater
 501              		.section	.text.SHT31_IsHeaterEnabled,"ax",%progbits
 502              		.align	2
 503              		.global	SHT31_IsHeaterEnabled
 504              		.code	16
 505              		.thumb_func
 506              		.type	SHT31_IsHeaterEnabled, %function
 507              	SHT31_IsHeaterEnabled:
 508              	.LFB40:
 125:library.c     **** 
 126:library.c     **** bool SHT31_IsHeaterEnabled(void) {
 509              		.loc 1 126 0
 510              		.cfi_startproc
 511              		@ args = 0, pretend = 0, frame = 0
 512              		@ frame_needed = 0, uses_anonymous_args = 0
 513 0000 10B5     		push	{r4, lr}
 514              		.cfi_def_cfa_offset 8
 515              		.cfi_offset 4, -8
 516              		.cfi_offset 14, -4
 127:library.c     ****     uint16_t reg = SHT31_ReadStatus();
 517              		.loc 1 127 0
 518 0002 FFF7FEFF 		bl	SHT31_ReadStatus
 519              	.LVL68:
 128:library.c     ****     return (reg != 0xFFFF) && (reg & (1 << SHT31_REG_HEATER_BIT));
 520              		.loc 1 128 0
 521 0006 054B     		ldr	r3, .L37
 522 0008 9842     		cmp	r0, r3
 523 000a 03D0     		beq	.L35
 524              		.loc 1 128 0 is_stmt 0 discriminator 1
 525 000c 8304     		lsls	r3, r0, #18
 526 000e 03D4     		bmi	.L36
 527              		.loc 1 128 0
 528 0010 0020     		movs	r0, #0
 529              	.LVL69:
 530 0012 02E0     		b	.L34
 531              	.LVL70:
 532              	.L35:
 533 0014 0020     		movs	r0, #0
 534              	.LVL71:
 535 0016 00E0     		b	.L34
 536              	.LVL72:
 537              	.L36:
 538 0018 0120     		movs	r0, #1
 539              	.LVL73:
 540              	.L34:
 129:library.c     **** }
 541              		.loc 1 129 0 is_stmt 1 discriminator 6
 542              		@ sp needed
 543 001a 10BD     		pop	{r4, pc}
ARM GAS  C:\Users\becca\AppData\Local\Temp\ccXx9XK4.s 			page 13


 544              	.L38:
 545              		.align	2
 546              	.L37:
 547 001c FFFF0000 		.word	65535
 548              		.cfi_endproc
 549              	.LFE40:
 550              		.size	SHT31_IsHeaterEnabled, .-SHT31_IsHeaterEnabled
 551              		.global	__aeabi_i2f
 552              		.global	__aeabi_fdiv
 553              		.global	__aeabi_ui2f
 554              		.section	.text.SHT31_ReadTempHum,"ax",%progbits
 555              		.align	2
 556              		.global	SHT31_ReadTempHum
 557              		.code	16
 558              		.thumb_func
 559              		.type	SHT31_ReadTempHum, %function
 560              	SHT31_ReadTempHum:
 561              	.LFB41:
 130:library.c     **** 
 131:library.c     **** bool SHT31_ReadTempHum(float *outTemp, float *outHum) {
 562              		.loc 1 131 0
 563              		.cfi_startproc
 564              		@ args = 0, pretend = 0, frame = 72
 565              		@ frame_needed = 0, uses_anonymous_args = 0
 566              	.LVL74:
 567 0000 F0B5     		push	{r4, r5, r6, r7, lr}
 568              		.cfi_def_cfa_offset 20
 569              		.cfi_offset 4, -20
 570              		.cfi_offset 5, -16
 571              		.cfi_offset 6, -12
 572              		.cfi_offset 7, -8
 573              		.cfi_offset 14, -4
 574 0002 4746     		mov	r7, r8
 575 0004 80B4     		push	{r7}
 576              		.cfi_def_cfa_offset 24
 577              		.cfi_offset 8, -24
 578 0006 92B0     		sub	sp, sp, #72
 579              		.cfi_def_cfa_offset 96
 580 0008 0700     		movs	r7, r0
 581 000a 0E00     		movs	r6, r1
 132:library.c     ****     uint8_t readbuffer[6] = {0};
 582              		.loc 1 132 0
 583 000c 0622     		movs	r2, #6
 584 000e 0021     		movs	r1, #0
 585              	.LVL75:
 586 0010 10A8     		add	r0, sp, #64
 587              	.LVL76:
 588 0012 FFF7FEFF 		bl	memset
 589              	.LVL77:
 133:library.c     ****     uint8_t err;
 134:library.c     ****     char buffer[64];
 135:library.c     ****     
 136:library.c     ****     CyDelay(50);
 590              		.loc 1 136 0
 591 0016 3220     		movs	r0, #50
 592 0018 FFF7FEFF 		bl	CyDelay
 593              	.LVL78:
ARM GAS  C:\Users\becca\AppData\Local\Temp\ccXx9XK4.s 			page 14


 137:library.c     ****     
 138:library.c     ****     if (!writeCommand(SHT31_MEAS_HIGHREP)){ //preps sensor by sending command
 594              		.loc 1 138 0
 595 001c 9020     		movs	r0, #144
 596 001e 8001     		lsls	r0, r0, #6
 597 0020 FFF7FEFF 		bl	writeCommand
 598              	.LVL79:
 599 0024 051E     		subs	r5, r0, #0
 600 0026 06D1     		bne	.L40
 139:library.c     ****         CyDelay(50);
 601              		.loc 1 139 0
 602 0028 3220     		movs	r0, #50
 603 002a FFF7FEFF 		bl	CyDelay
 604              	.LVL80:
 140:library.c     ****         UART_UartPutString("Error with Read Temp Hum: writeCommand\r\n");
 605              		.loc 1 140 0
 606 002e 3B48     		ldr	r0, .L49
 607 0030 FFF7FEFF 		bl	UART_UartPutString
 608              	.LVL81:
 141:library.c     ****         return false;
 609              		.loc 1 141 0
 610 0034 6CE0     		b	.L41
 611              	.L40:
 142:library.c     ****     }
 143:library.c     ****     
 144:library.c     ****     CyDelay(50);
 612              		.loc 1 144 0
 613 0036 3220     		movs	r0, #50
 614 0038 FFF7FEFF 		bl	CyDelay
 615              	.LVL82:
 145:library.c     ****     
 146:library.c     ****     I2C_I2CMasterClearStatus();
 616              		.loc 1 146 0
 617 003c FFF7FEFF 		bl	I2C_I2CMasterClearStatus
 618              	.LVL83:
 147:library.c     ****     
 148:library.c     ****     err = I2C_I2CMasterSendStart(SHT31_I2C_ADDR, I2C_I2C_READ_XFER_MODE, TIMEOUT);
 619              		.loc 1 148 0
 620 0040 1422     		movs	r2, #20
 621 0042 0121     		movs	r1, #1
 622 0044 4420     		movs	r0, #68
 623 0046 FFF7FEFF 		bl	I2C_I2CMasterSendStart
 624              	.LVL84:
 625 004a C4B2     		uxtb	r4, r0
 626              	.LVL85:
 149:library.c     ****     
 150:library.c     ****     CyDelay(50);
 627              		.loc 1 150 0
 628 004c 3220     		movs	r0, #50
 629 004e FFF7FEFF 		bl	CyDelay
 630              	.LVL86:
 151:library.c     ****     
 152:library.c     ****         if(err != I2C_I2C_MSTR_NO_ERROR){
 631              		.loc 1 152 0
 632 0052 002C     		cmp	r4, #0
 633 0054 05D0     		beq	.L42
 153:library.c     ****             UART_UartPutString("Error with Read Temp Hum: SendStart\r\n");
ARM GAS  C:\Users\becca\AppData\Local\Temp\ccXx9XK4.s 			page 15


 634              		.loc 1 153 0
 635 0056 3248     		ldr	r0, .L49+4
 636 0058 FFF7FEFF 		bl	UART_UartPutString
 637              	.LVL87:
 154:library.c     ****             I2C_I2CMasterSendStop(TIMEOUT);
 638              		.loc 1 154 0
 639 005c 1420     		movs	r0, #20
 640 005e FFF7FEFF 		bl	I2C_I2CMasterSendStop
 641              	.LVL88:
 642              	.L42:
 131:library.c     ****     uint8_t readbuffer[6] = {0};
 643              		.loc 1 131 0 discriminator 1
 644 0062 0024     		movs	r4, #0
 645              	.LVL89:
 646 0064 1BE0     		b	.L43
 647              	.LVL90:
 648              	.L46:
 649              	.LBB8:
 155:library.c     ****            }
 156:library.c     ****         
 157:library.c     ****     for(int i = 0; i < 6; i++){ //get data byte by byte
 158:library.c     ****         CyDelay(50);
 650              		.loc 1 158 0
 651 0066 3220     		movs	r0, #50
 652 0068 FFF7FEFF 		bl	CyDelay
 653              	.LVL91:
 159:library.c     ****         err = I2C_I2CMasterReadByte((i<5) ? I2C_I2C_ACK_DATA : I2C_I2C_NAK_DATA, &readbuffer[i], TI
 654              		.loc 1 159 0
 655 006c 0120     		movs	r0, #1
 656 006e 042C     		cmp	r4, #4
 657 0070 00DC     		bgt	.L44
 658 0072 0020     		movs	r0, #0
 659              	.L44:
 660 0074 C0B2     		uxtb	r0, r0
 661 0076 10AB     		add	r3, sp, #64
 662 0078 1919     		adds	r1, r3, r4
 663 007a 1422     		movs	r2, #20
 664 007c FFF7FEFF 		bl	I2C_I2CMasterReadByte
 665              	.LVL92:
 666 0080 C0B2     		uxtb	r0, r0
 667              	.LVL93:
 160:library.c     ****         if(err != I2C_I2C_MSTR_NO_ERROR){
 668              		.loc 1 160 0
 669 0082 0028     		cmp	r0, #0
 670 0084 0AD0     		beq	.L45
 671              	.LBB9:
 161:library.c     ****             UART_UartPutString("Error with Read Temp Hum: readByte\r\n");
 672              		.loc 1 161 0
 673 0086 2748     		ldr	r0, .L49+8
 674              	.LVL94:
 675 0088 FFF7FEFF 		bl	UART_UartPutString
 676              	.LVL95:
 162:library.c     ****             sprintf(buffer, "i = %d\t", i);
 677              		.loc 1 162 0
 678 008c 2200     		movs	r2, r4
 679 008e 2649     		ldr	r1, .L49+12
 680 0090 6846     		mov	r0, sp
ARM GAS  C:\Users\becca\AppData\Local\Temp\ccXx9XK4.s 			page 16


 681 0092 FFF7FEFF 		bl	sprintf
 682              	.LVL96:
 163:library.c     ****             UART_UartPutString(buffer);
 683              		.loc 1 163 0
 684 0096 6846     		mov	r0, sp
 685 0098 FFF7FEFF 		bl	UART_UartPutString
 686              	.LVL97:
 687              	.L45:
 688              	.LBE9:
 157:library.c     ****         CyDelay(50);
 689              		.loc 1 157 0 discriminator 2
 690 009c 0134     		adds	r4, r4, #1
 691              	.LVL98:
 692              	.L43:
 157:library.c     ****         CyDelay(50);
 693              		.loc 1 157 0 is_stmt 0 discriminator 1
 694 009e 052C     		cmp	r4, #5
 695 00a0 E1DD     		ble	.L46
 696              	.LBE8:
 164:library.c     ****         }
 165:library.c     ****     }
 166:library.c     ****     
 167:library.c     ****     if (readbuffer[2] != crc8(readbuffer, 2) || readbuffer[5] != crc8(readbuffer + 3, 2))
 697              		.loc 1 167 0 is_stmt 1
 698 00a2 10A8     		add	r0, sp, #64
 699 00a4 8478     		ldrb	r4, [r0, #2]
 700              	.LVL99:
 701 00a6 0221     		movs	r1, #2
 702 00a8 FFF7FEFF 		bl	crc8
 703              	.LVL100:
 704 00ac 8442     		cmp	r4, r0
 705 00ae 2CD1     		bne	.L47
 706              		.loc 1 167 0 is_stmt 0 discriminator 1
 707 00b0 10AB     		add	r3, sp, #64
 708 00b2 5C79     		ldrb	r4, [r3, #5]
 709 00b4 0221     		movs	r1, #2
 710 00b6 4320     		movs	r0, #67
 711 00b8 6844     		add	r0, r0, sp
 712 00ba FFF7FEFF 		bl	crc8
 713              	.LVL101:
 714 00be 8442     		cmp	r4, r0
 715 00c0 25D1     		bne	.L48
 168:library.c     ****         return false;
 169:library.c     **** 
 170:library.c     ****     int32_t stemp = ((uint32_t)readbuffer[0] << 8) | readbuffer[1]; //handle temp data
 716              		.loc 1 170 0 is_stmt 1
 717 00c2 10AC     		add	r4, sp, #64
 718 00c4 2078     		ldrb	r0, [r4]
 719 00c6 0002     		lsls	r0, r0, #8
 720 00c8 6378     		ldrb	r3, [r4, #1]
 721 00ca 1843     		orrs	r0, r3
 722              	.LVL102:
 171:library.c     ****     stemp = ((4375 * stemp) >> 14) - 4500;
 723              		.loc 1 171 0
 724 00cc 174B     		ldr	r3, .L49+16
 725 00ce 5843     		muls	r0, r3
 726              	.LVL103:
ARM GAS  C:\Users\becca\AppData\Local\Temp\ccXx9XK4.s 			page 17


 727 00d0 8013     		asrs	r0, r0, #14
 728 00d2 174B     		ldr	r3, .L49+20
 729 00d4 9C46     		mov	ip, r3
 730 00d6 6044     		add	r0, r0, ip
 731              	.LVL104:
 172:library.c     ****     float temp;
 173:library.c     ****     temp = (float)stemp / 100.0f;
 732              		.loc 1 173 0
 733 00d8 FFF7FEFF 		bl	__aeabi_i2f
 734              	.LVL105:
 735 00dc 1549     		ldr	r1, .L49+24
 736 00de FFF7FEFF 		bl	__aeabi_fdiv
 737              	.LVL106:
 738 00e2 8046     		mov	r8, r0
 739              	.LVL107:
 174:library.c     ****     
 175:library.c     ****     uint32_t shum = ((uint32_t)readbuffer[3] << 8) | readbuffer[4]; //handle humidity data
 740              		.loc 1 175 0
 741 00e4 E078     		ldrb	r0, [r4, #3]
 742              	.LVL108:
 743 00e6 0002     		lsls	r0, r0, #8
 744 00e8 2379     		ldrb	r3, [r4, #4]
 745 00ea 1843     		orrs	r0, r3
 746              	.LVL109:
 176:library.c     ****     shum = (625 * shum) >> 12;
 747              		.loc 1 176 0
 748 00ec 124B     		ldr	r3, .L49+28
 749 00ee 5843     		muls	r0, r3
 750              	.LVL110:
 751 00f0 000B     		lsrs	r0, r0, #12
 752              	.LVL111:
 177:library.c     ****     float humidity;
 178:library.c     ****     humidity = (float)shum / 100.0f;
 753              		.loc 1 178 0
 754 00f2 FFF7FEFF 		bl	__aeabi_ui2f
 755              	.LVL112:
 756 00f6 0F49     		ldr	r1, .L49+24
 757 00f8 FFF7FEFF 		bl	__aeabi_fdiv
 758              	.LVL113:
 179:library.c     ****     
 180:library.c     ****     
 181:library.c     ****     *outTemp = temp; //assign variables to og temp var
 759              		.loc 1 181 0
 760 00fc 4346     		mov	r3, r8
 761 00fe 3B60     		str	r3, [r7]
 182:library.c     ****     *outHum = humidity; //assign variables to og temp var
 762              		.loc 1 182 0
 763 0100 3060     		str	r0, [r6]
 183:library.c     ****     
 184:library.c     ****     I2C_I2CMasterSendStop(TIMEOUT);
 764              		.loc 1 184 0
 765 0102 1420     		movs	r0, #20
 766              	.LVL114:
 767 0104 FFF7FEFF 		bl	I2C_I2CMasterSendStop
 768              	.LVL115:
 185:library.c     **** 
 186:library.c     ****     return true; 
ARM GAS  C:\Users\becca\AppData\Local\Temp\ccXx9XK4.s 			page 18


 769              		.loc 1 186 0
 770 0108 02E0     		b	.L41
 771              	.LVL116:
 772              	.L47:
 168:library.c     **** 
 773              		.loc 1 168 0
 774 010a 0025     		movs	r5, #0
 775 010c 00E0     		b	.L41
 776              	.L48:
 777 010e 0025     		movs	r5, #0
 778              	.L41:
 187:library.c     **** }
 779              		.loc 1 187 0
 780 0110 2800     		movs	r0, r5
 781 0112 12B0     		add	sp, sp, #72
 782              		@ sp needed
 783              	.LVL117:
 784              	.LVL118:
 785 0114 04BC     		pop	{r2}
 786 0116 9046     		mov	r8, r2
 787 0118 F0BD     		pop	{r4, r5, r6, r7, pc}
 788              	.L50:
 789 011a C046     		.align	2
 790              	.L49:
 791 011c F4000000 		.word	.LC14
 792 0120 20010000 		.word	.LC16
 793 0124 48010000 		.word	.LC18
 794 0128 70010000 		.word	.LC20
 795 012c 17110000 		.word	4375
 796 0130 6CEEFFFF 		.word	-4500
 797 0134 0000C842 		.word	1120403456
 798 0138 71020000 		.word	625
 799              		.cfi_endproc
 800              	.LFE41:
 801              		.size	SHT31_ReadTempHum, .-SHT31_ReadTempHum
 802              		.section	.rodata.str1.4,"aMS",%progbits,1
 803              		.align	2
 804              	.LC0:
 805 0000 4572726F 		.ascii	"Error with write Command sendStart\015\012\000"
 805      72207769 
 805      74682077 
 805      72697465 
 805      20436F6D 
 806 0025 000000   		.space	3
 807              	.LC2:
 808 0028 65727220 		.ascii	"err = %d\012\000"
 808      3D202564 
 808      0A00
 809 0032 0000     		.space	2
 810              	.LC4:
 811 0034 4572726F 		.ascii	"Error with writeCommand: writeByte\015\012\000"
 811      72207769 
 811      74682077 
 811      72697465 
 811      436F6D6D 
 812 0059 000000   		.space	3
 813              	.LC6:
ARM GAS  C:\Users\becca\AppData\Local\Temp\ccXx9XK4.s 			page 19


 814 005c 4572726F 		.ascii	"Error with writeCommand: writeByte2\015\012\000"
 814      72207769 
 814      74682077 
 814      72697465 
 814      436F6D6D 
 815 0082 0000     		.space	2
 816              	.LC8:
 817 0084 4572726F 		.ascii	"Error with Read Status: writeCommand\015\012\000"
 817      72207769 
 817      74682052 
 817      65616420 
 817      53746174 
 818 00ab 00       		.space	1
 819              	.LC10:
 820 00ac 4572726F 		.ascii	"Error with Read Status: SendStart\015\012\000"
 820      72207769 
 820      74682052 
 820      65616420 
 820      53746174 
 821              	.LC12:
 822 00d0 4572726F 		.ascii	"Error with Read Status: ReadBuf\015\012\000"
 822      72207769 
 822      74682052 
 822      65616420 
 822      53746174 
 823 00f2 0000     		.space	2
 824              	.LC14:
 825 00f4 4572726F 		.ascii	"Error with Read Temp Hum: writeCommand\015\012\000"
 825      72207769 
 825      74682052 
 825      65616420 
 825      54656D70 
 826 011d 000000   		.space	3
 827              	.LC16:
 828 0120 4572726F 		.ascii	"Error with Read Temp Hum: SendStart\015\012\000"
 828      72207769 
 828      74682052 
 828      65616420 
 828      54656D70 
 829 0146 0000     		.space	2
 830              	.LC18:
 831 0148 4572726F 		.ascii	"Error with Read Temp Hum: readByte\015\012\000"
 831      72207769 
 831      74682052 
 831      65616420 
 831      54656D70 
 832 016d 000000   		.space	3
 833              	.LC20:
 834 0170 69203D20 		.ascii	"i = %d\011\000"
 834      25640900 
 835              		.text
 836              	.Letext0:
 837              		.file 2 "c:\\program files (x86)\\cypress\\psoc creator\\4.4\\psoc creator\\import\\gnu\\arm\\5.4.
 838              		.file 3 "c:\\program files (x86)\\cypress\\psoc creator\\4.4\\psoc creator\\import\\gnu\\arm\\5.4.
 839              		.file 4 "<built-in>"
 840              		.file 5 "Generated_Source\\PSoC4/UART_SPI_UART.h"
 841              		.file 6 "Generated_Source\\PSoC4/I2C_I2C.h"
ARM GAS  C:\Users\becca\AppData\Local\Temp\ccXx9XK4.s 			page 20


 842              		.file 7 "Generated_Source\\PSoC4/CyLib.h"
 843              		.file 8 "Generated_Source\\PSoC4/I2C.h"