ARM GAS  C:\Users\becca\AppData\Local\Temp\ccLgcTze.s 			page 1


   1              		.syntax unified
   2              		.cpu cortex-m0
   3              		.fpu softvfp
   4              		.eabi_attribute 20, 1
   5              		.eabi_attribute 21, 1
   6              		.eabi_attribute 23, 3
   7              		.eabi_attribute 24, 1
   8              		.eabi_attribute 25, 1
   9              		.eabi_attribute 26, 1
  10              		.eabi_attribute 30, 1
  11              		.eabi_attribute 34, 0
  12              		.eabi_attribute 18, 4
  13              		.thumb
  14              		.syntax unified
  15              		.file	"cyfitter_cfg.c"
  16              		.text
  17              	.Ltext0:
  18              		.cfi_sections	.debug_frame
  19              		.section	.text.cfg_write_bytes32,"ax",%progbits
  20              		.align	2
  21              		.code	16
  22              		.thumb_func
  23              		.type	cfg_write_bytes32, %function
  24              	cfg_write_bytes32:
  25              	.LFB4:
  26              		.file 1 "Generated_Source\\PSoC4\\cyfitter_cfg.c"
   1:Generated_Source\PSoC4/cyfitter_cfg.c **** 
   2:Generated_Source\PSoC4/cyfitter_cfg.c **** /*******************************************************************************
   3:Generated_Source\PSoC4/cyfitter_cfg.c **** * File Name: cyfitter_cfg.c
   4:Generated_Source\PSoC4/cyfitter_cfg.c **** * 
   5:Generated_Source\PSoC4/cyfitter_cfg.c **** * PSoC Creator  4.4
   6:Generated_Source\PSoC4/cyfitter_cfg.c **** *
   7:Generated_Source\PSoC4/cyfitter_cfg.c **** * Description:
   8:Generated_Source\PSoC4/cyfitter_cfg.c **** * This file contains device initialization code.
   9:Generated_Source\PSoC4/cyfitter_cfg.c **** * Except for the user defined sections in CyClockStartupError(), this file should not be modified.
  10:Generated_Source\PSoC4/cyfitter_cfg.c **** * This file is automatically generated by PSoC Creator.
  11:Generated_Source\PSoC4/cyfitter_cfg.c **** *
  12:Generated_Source\PSoC4/cyfitter_cfg.c **** ********************************************************************************
  13:Generated_Source\PSoC4/cyfitter_cfg.c **** * Copyright (c) 2007-2020 Cypress Semiconductor.  All rights reserved.
  14:Generated_Source\PSoC4/cyfitter_cfg.c **** * You may use this file only in accordance with the license, terms, conditions, 
  15:Generated_Source\PSoC4/cyfitter_cfg.c **** * disclaimers, and limitations in the end user license agreement accompanying 
  16:Generated_Source\PSoC4/cyfitter_cfg.c **** * the software package with which this file was provided.
  17:Generated_Source\PSoC4/cyfitter_cfg.c **** ********************************************************************************/
  18:Generated_Source\PSoC4/cyfitter_cfg.c **** 
  19:Generated_Source\PSoC4/cyfitter_cfg.c **** #include <string.h>
  20:Generated_Source\PSoC4/cyfitter_cfg.c **** #include "cytypes.h"
  21:Generated_Source\PSoC4/cyfitter_cfg.c **** #include "cydevice_trm.h"
  22:Generated_Source\PSoC4/cyfitter_cfg.c **** #include "cyfitter.h"
  23:Generated_Source\PSoC4/cyfitter_cfg.c **** #include "CyLib.h"
  24:Generated_Source\PSoC4/cyfitter_cfg.c **** #include "CyLFClk.h"
  25:Generated_Source\PSoC4/cyfitter_cfg.c **** #include "cyfitter_cfg.h"
  26:Generated_Source\PSoC4/cyfitter_cfg.c **** #include "cyapicallbacks.h"
  27:Generated_Source\PSoC4/cyfitter_cfg.c **** 
  28:Generated_Source\PSoC4/cyfitter_cfg.c **** 
  29:Generated_Source\PSoC4/cyfitter_cfg.c **** #if defined(__GNUC__) || defined(__ARMCC_VERSION)
  30:Generated_Source\PSoC4/cyfitter_cfg.c ****     #define CYPACKED 
  31:Generated_Source\PSoC4/cyfitter_cfg.c ****     #define CYPACKED_ATTR __attribute__ ((packed))
ARM GAS  C:\Users\becca\AppData\Local\Temp\ccLgcTze.s 			page 2


  32:Generated_Source\PSoC4/cyfitter_cfg.c ****     #define CYALIGNED __attribute__ ((aligned))
  33:Generated_Source\PSoC4/cyfitter_cfg.c ****     #define CY_CFG_UNUSED __attribute__ ((unused))
  34:Generated_Source\PSoC4/cyfitter_cfg.c ****     #ifndef CY_CFG_SECTION
  35:Generated_Source\PSoC4/cyfitter_cfg.c ****         #define CY_CFG_SECTION __attribute__ ((section(".psocinit")))
  36:Generated_Source\PSoC4/cyfitter_cfg.c ****     #endif
  37:Generated_Source\PSoC4/cyfitter_cfg.c ****     
  38:Generated_Source\PSoC4/cyfitter_cfg.c ****     #if defined(__ARMCC_VERSION)
  39:Generated_Source\PSoC4/cyfitter_cfg.c ****         #define CY_CFG_MEMORY_BARRIER() __memory_changed()
  40:Generated_Source\PSoC4/cyfitter_cfg.c ****     #else
  41:Generated_Source\PSoC4/cyfitter_cfg.c ****         #define CY_CFG_MEMORY_BARRIER() __sync_synchronize()
  42:Generated_Source\PSoC4/cyfitter_cfg.c ****     #endif
  43:Generated_Source\PSoC4/cyfitter_cfg.c ****     
  44:Generated_Source\PSoC4/cyfitter_cfg.c **** #elif defined(__ICCARM__)
  45:Generated_Source\PSoC4/cyfitter_cfg.c ****     #include <intrinsics.h>
  46:Generated_Source\PSoC4/cyfitter_cfg.c **** 
  47:Generated_Source\PSoC4/cyfitter_cfg.c ****     #define CYPACKED __packed
  48:Generated_Source\PSoC4/cyfitter_cfg.c ****     #define CYPACKED_ATTR 
  49:Generated_Source\PSoC4/cyfitter_cfg.c ****     #define CYALIGNED _Pragma("data_alignment=4")
  50:Generated_Source\PSoC4/cyfitter_cfg.c ****     #define CY_CFG_UNUSED _Pragma("diag_suppress=Pe177")
  51:Generated_Source\PSoC4/cyfitter_cfg.c ****     #define CY_CFG_SECTION _Pragma("location=\".psocinit\"")
  52:Generated_Source\PSoC4/cyfitter_cfg.c ****     
  53:Generated_Source\PSoC4/cyfitter_cfg.c ****     #define CY_CFG_MEMORY_BARRIER() __DMB()
  54:Generated_Source\PSoC4/cyfitter_cfg.c ****     
  55:Generated_Source\PSoC4/cyfitter_cfg.c **** #else
  56:Generated_Source\PSoC4/cyfitter_cfg.c ****     #error Unsupported toolchain
  57:Generated_Source\PSoC4/cyfitter_cfg.c **** #endif
  58:Generated_Source\PSoC4/cyfitter_cfg.c **** 
  59:Generated_Source\PSoC4/cyfitter_cfg.c **** #ifndef CYCODE
  60:Generated_Source\PSoC4/cyfitter_cfg.c ****     #define CYCODE
  61:Generated_Source\PSoC4/cyfitter_cfg.c **** #endif
  62:Generated_Source\PSoC4/cyfitter_cfg.c **** #ifndef CYDATA
  63:Generated_Source\PSoC4/cyfitter_cfg.c ****     #define CYDATA
  64:Generated_Source\PSoC4/cyfitter_cfg.c **** #endif
  65:Generated_Source\PSoC4/cyfitter_cfg.c **** #ifndef CYFAR
  66:Generated_Source\PSoC4/cyfitter_cfg.c ****     #define CYFAR
  67:Generated_Source\PSoC4/cyfitter_cfg.c **** #endif
  68:Generated_Source\PSoC4/cyfitter_cfg.c **** #ifndef CYXDATA
  69:Generated_Source\PSoC4/cyfitter_cfg.c ****     #define CYXDATA
  70:Generated_Source\PSoC4/cyfitter_cfg.c **** #endif
  71:Generated_Source\PSoC4/cyfitter_cfg.c **** 
  72:Generated_Source\PSoC4/cyfitter_cfg.c **** 
  73:Generated_Source\PSoC4/cyfitter_cfg.c **** CY_CFG_UNUSED
  74:Generated_Source\PSoC4/cyfitter_cfg.c **** static void CYMEMZERO(void *s, size_t n);
  75:Generated_Source\PSoC4/cyfitter_cfg.c **** CY_CFG_UNUSED
  76:Generated_Source\PSoC4/cyfitter_cfg.c **** static void CYMEMZERO(void *s, size_t n)
  77:Generated_Source\PSoC4/cyfitter_cfg.c **** {
  78:Generated_Source\PSoC4/cyfitter_cfg.c **** 	(void)memset(s, 0, n);
  79:Generated_Source\PSoC4/cyfitter_cfg.c **** }
  80:Generated_Source\PSoC4/cyfitter_cfg.c **** CY_CFG_UNUSED
  81:Generated_Source\PSoC4/cyfitter_cfg.c **** static void CYCONFIGCPY(void *dest, const void *src, size_t n);
  82:Generated_Source\PSoC4/cyfitter_cfg.c **** CY_CFG_UNUSED
  83:Generated_Source\PSoC4/cyfitter_cfg.c **** static void CYCONFIGCPY(void *dest, const void *src, size_t n)
  84:Generated_Source\PSoC4/cyfitter_cfg.c **** {
  85:Generated_Source\PSoC4/cyfitter_cfg.c **** 	(void)memcpy(dest, src, n);
  86:Generated_Source\PSoC4/cyfitter_cfg.c **** }
  87:Generated_Source\PSoC4/cyfitter_cfg.c **** CY_CFG_UNUSED
  88:Generated_Source\PSoC4/cyfitter_cfg.c **** static void CYCONFIGCPYCODE(void *dest, const void *src, size_t n);
ARM GAS  C:\Users\becca\AppData\Local\Temp\ccLgcTze.s 			page 3


  89:Generated_Source\PSoC4/cyfitter_cfg.c **** CY_CFG_UNUSED
  90:Generated_Source\PSoC4/cyfitter_cfg.c **** static void CYCONFIGCPYCODE(void *dest, const void *src, size_t n)
  91:Generated_Source\PSoC4/cyfitter_cfg.c **** {
  92:Generated_Source\PSoC4/cyfitter_cfg.c **** 	(void)memcpy(dest, src, n);
  93:Generated_Source\PSoC4/cyfitter_cfg.c **** }
  94:Generated_Source\PSoC4/cyfitter_cfg.c **** 
  95:Generated_Source\PSoC4/cyfitter_cfg.c **** 
  96:Generated_Source\PSoC4/cyfitter_cfg.c **** 
  97:Generated_Source\PSoC4/cyfitter_cfg.c **** 
  98:Generated_Source\PSoC4/cyfitter_cfg.c **** /* Clock startup error codes                                                   */
  99:Generated_Source\PSoC4/cyfitter_cfg.c **** #define CYCLOCKSTART_NO_ERROR    0u
 100:Generated_Source\PSoC4/cyfitter_cfg.c **** #define CYCLOCKSTART_XTAL_ERROR  1u
 101:Generated_Source\PSoC4/cyfitter_cfg.c **** #define CYCLOCKSTART_32KHZ_ERROR 2u
 102:Generated_Source\PSoC4/cyfitter_cfg.c **** #define CYCLOCKSTART_PLL_ERROR   3u
 103:Generated_Source\PSoC4/cyfitter_cfg.c **** #define CYCLOCKSTART_FLL_ERROR   4u
 104:Generated_Source\PSoC4/cyfitter_cfg.c **** #define CYCLOCKSTART_WCO_ERROR   5u
 105:Generated_Source\PSoC4/cyfitter_cfg.c **** 
 106:Generated_Source\PSoC4/cyfitter_cfg.c **** 
 107:Generated_Source\PSoC4/cyfitter_cfg.c **** #ifdef CY_NEED_CYCLOCKSTARTUPERROR
 108:Generated_Source\PSoC4/cyfitter_cfg.c **** /*******************************************************************************
 109:Generated_Source\PSoC4/cyfitter_cfg.c **** * Function Name: CyClockStartupError
 110:Generated_Source\PSoC4/cyfitter_cfg.c **** ********************************************************************************
 111:Generated_Source\PSoC4/cyfitter_cfg.c **** * Summary:
 112:Generated_Source\PSoC4/cyfitter_cfg.c **** *  If an error is encountered during clock configuration (crystal startup error,
 113:Generated_Source\PSoC4/cyfitter_cfg.c **** *  PLL lock error, etc.), the system will end up here.  Unless reimplemented by
 114:Generated_Source\PSoC4/cyfitter_cfg.c **** *  the customer, this function will stop in an infinite loop.
 115:Generated_Source\PSoC4/cyfitter_cfg.c **** *
 116:Generated_Source\PSoC4/cyfitter_cfg.c **** * Parameters:
 117:Generated_Source\PSoC4/cyfitter_cfg.c **** *   void
 118:Generated_Source\PSoC4/cyfitter_cfg.c **** *
 119:Generated_Source\PSoC4/cyfitter_cfg.c **** * Return:
 120:Generated_Source\PSoC4/cyfitter_cfg.c **** *   void
 121:Generated_Source\PSoC4/cyfitter_cfg.c **** *
 122:Generated_Source\PSoC4/cyfitter_cfg.c **** *******************************************************************************/
 123:Generated_Source\PSoC4/cyfitter_cfg.c **** CY_CFG_UNUSED
 124:Generated_Source\PSoC4/cyfitter_cfg.c **** static void CyClockStartupError(uint8 errorCode);
 125:Generated_Source\PSoC4/cyfitter_cfg.c **** CY_CFG_UNUSED
 126:Generated_Source\PSoC4/cyfitter_cfg.c **** static void CyClockStartupError(uint8 errorCode)
 127:Generated_Source\PSoC4/cyfitter_cfg.c **** {
 128:Generated_Source\PSoC4/cyfitter_cfg.c ****     /* To remove the compiler warning if errorCode not used.                */
 129:Generated_Source\PSoC4/cyfitter_cfg.c ****     errorCode = errorCode;
 130:Generated_Source\PSoC4/cyfitter_cfg.c **** 
 131:Generated_Source\PSoC4/cyfitter_cfg.c ****     /* If we have a clock startup error (bad MHz crystal, PLL lock, etc.),  */
 132:Generated_Source\PSoC4/cyfitter_cfg.c ****     /* we will end up here to allow the customer to implement something to  */
 133:Generated_Source\PSoC4/cyfitter_cfg.c ****     /* deal with the clock condition.                                       */
 134:Generated_Source\PSoC4/cyfitter_cfg.c **** 
 135:Generated_Source\PSoC4/cyfitter_cfg.c **** #ifdef CY_CFG_CLOCK_STARTUP_ERROR_CALLBACK
 136:Generated_Source\PSoC4/cyfitter_cfg.c ****     CY_CFG_Clock_Startup_ErrorCallback();
 137:Generated_Source\PSoC4/cyfitter_cfg.c **** #else
 138:Generated_Source\PSoC4/cyfitter_cfg.c ****     /*  If not using CY_CFG_CLOCK_STARTUP_ERROR_CALLBACK, place your clock startup code here. */
 139:Generated_Source\PSoC4/cyfitter_cfg.c ****     /* `#START CyClockStartupError` */
 140:Generated_Source\PSoC4/cyfitter_cfg.c **** 
 141:Generated_Source\PSoC4/cyfitter_cfg.c **** 
 142:Generated_Source\PSoC4/cyfitter_cfg.c **** 
 143:Generated_Source\PSoC4/cyfitter_cfg.c ****     /* `#END` */
 144:Generated_Source\PSoC4/cyfitter_cfg.c **** 
 145:Generated_Source\PSoC4/cyfitter_cfg.c ****     while(1) {}
ARM GAS  C:\Users\becca\AppData\Local\Temp\ccLgcTze.s 			page 4


 146:Generated_Source\PSoC4/cyfitter_cfg.c **** #endif /* CY_CFG_CLOCK_STARTUP_ERROR_CALLBACK */
 147:Generated_Source\PSoC4/cyfitter_cfg.c **** }
 148:Generated_Source\PSoC4/cyfitter_cfg.c **** #endif
 149:Generated_Source\PSoC4/cyfitter_cfg.c **** 
 150:Generated_Source\PSoC4/cyfitter_cfg.c **** #define CY_CFG_BASE_ADDR_COUNT 13u
 151:Generated_Source\PSoC4/cyfitter_cfg.c **** CYPACKED typedef struct
 152:Generated_Source\PSoC4/cyfitter_cfg.c **** {
 153:Generated_Source\PSoC4/cyfitter_cfg.c **** 	uint8 offset;
 154:Generated_Source\PSoC4/cyfitter_cfg.c **** 	uint8 value;
 155:Generated_Source\PSoC4/cyfitter_cfg.c **** } CYPACKED_ATTR cy_cfg_addrvalue_t;
 156:Generated_Source\PSoC4/cyfitter_cfg.c **** 
 157:Generated_Source\PSoC4/cyfitter_cfg.c **** 
 158:Generated_Source\PSoC4/cyfitter_cfg.c **** 
 159:Generated_Source\PSoC4/cyfitter_cfg.c **** /*******************************************************************************
 160:Generated_Source\PSoC4/cyfitter_cfg.c **** * Function Name: cfg_write_bytes32
 161:Generated_Source\PSoC4/cyfitter_cfg.c **** ********************************************************************************
 162:Generated_Source\PSoC4/cyfitter_cfg.c **** * Summary:
 163:Generated_Source\PSoC4/cyfitter_cfg.c **** *  This function is used for setting up the chip configuration areas that
 164:Generated_Source\PSoC4/cyfitter_cfg.c **** *  contain relatively sparse data.
 165:Generated_Source\PSoC4/cyfitter_cfg.c **** *
 166:Generated_Source\PSoC4/cyfitter_cfg.c **** * Parameters:
 167:Generated_Source\PSoC4/cyfitter_cfg.c **** *   void
 168:Generated_Source\PSoC4/cyfitter_cfg.c **** *
 169:Generated_Source\PSoC4/cyfitter_cfg.c **** * Return:
 170:Generated_Source\PSoC4/cyfitter_cfg.c **** *   void
 171:Generated_Source\PSoC4/cyfitter_cfg.c **** *
 172:Generated_Source\PSoC4/cyfitter_cfg.c **** *******************************************************************************/
 173:Generated_Source\PSoC4/cyfitter_cfg.c **** static void cfg_write_bytes32(const uint32 addr_table[], const cy_cfg_addrvalue_t data_table[]);
 174:Generated_Source\PSoC4/cyfitter_cfg.c **** static void cfg_write_bytes32(const uint32 addr_table[], const cy_cfg_addrvalue_t data_table[])
 175:Generated_Source\PSoC4/cyfitter_cfg.c **** {
  27              		.loc 1 175 0
  28              		.cfi_startproc
  29              		@ args = 0, pretend = 0, frame = 0
  30              		@ frame_needed = 0, uses_anonymous_args = 0
  31              	.LVL0:
  32 0000 F0B5     		push	{r4, r5, r6, r7, lr}
  33              		.cfi_def_cfa_offset 20
  34              		.cfi_offset 4, -20
  35              		.cfi_offset 5, -16
  36              		.cfi_offset 6, -12
  37              		.cfi_offset 7, -8
  38              		.cfi_offset 14, -4
  39              	.LVL1:
 176:Generated_Source\PSoC4/cyfitter_cfg.c **** 	/* For 32-bit little-endian architectures */
 177:Generated_Source\PSoC4/cyfitter_cfg.c **** 	uint32 i, j = 0u;
  40              		.loc 1 177 0
  41 0002 0025     		movs	r5, #0
 178:Generated_Source\PSoC4/cyfitter_cfg.c **** 	for (i = 0u; i < CY_CFG_BASE_ADDR_COUNT; i++)
  42              		.loc 1 178 0
  43 0004 0027     		movs	r7, #0
  44 0006 11E0     		b	.L2
  45              	.LVL2:
  46              	.L5:
  47              	.LBB2:
 179:Generated_Source\PSoC4/cyfitter_cfg.c **** 	{
 180:Generated_Source\PSoC4/cyfitter_cfg.c **** 		uint32 baseAddr = addr_table[i];
  48              		.loc 1 180 0
ARM GAS  C:\Users\becca\AppData\Local\Temp\ccLgcTze.s 			page 5


  49 0008 BB00     		lsls	r3, r7, #2
  50 000a C658     		ldr	r6, [r0, r3]
  51              	.LVL3:
 181:Generated_Source\PSoC4/cyfitter_cfg.c **** 		uint8 count = (uint8)baseAddr;
  52              		.loc 1 181 0
  53 000c F3B2     		uxtb	r3, r6
  54              	.LVL4:
 182:Generated_Source\PSoC4/cyfitter_cfg.c **** 		baseAddr &= 0xFFFFFF00u;
  55              		.loc 1 182 0
  56 000e FF22     		movs	r2, #255
  57 0010 9643     		bics	r6, r2
  58              	.LVL5:
 183:Generated_Source\PSoC4/cyfitter_cfg.c **** 		while (count != 0u)
  59              		.loc 1 183 0
  60 0012 08E0     		b	.L3
  61              	.L4:
 184:Generated_Source\PSoC4/cyfitter_cfg.c **** 		{
 185:Generated_Source\PSoC4/cyfitter_cfg.c **** 			CY_SET_REG8((void *)(baseAddr + data_table[j].offset), data_table[j].value);
  62              		.loc 1 185 0
  63 0014 6A00     		lsls	r2, r5, #1
  64 0016 8A18     		adds	r2, r1, r2
  65 0018 1478     		ldrb	r4, [r2]
  66 001a A419     		adds	r4, r4, r6
  67 001c 5278     		ldrb	r2, [r2, #1]
  68 001e 2270     		strb	r2, [r4]
 186:Generated_Source\PSoC4/cyfitter_cfg.c **** 			j++;
  69              		.loc 1 186 0
  70 0020 0135     		adds	r5, r5, #1
  71              	.LVL6:
 187:Generated_Source\PSoC4/cyfitter_cfg.c **** 			count--;
  72              		.loc 1 187 0
  73 0022 013B     		subs	r3, r3, #1
  74              	.LVL7:
  75 0024 DBB2     		uxtb	r3, r3
  76              	.LVL8:
  77              	.L3:
 183:Generated_Source\PSoC4/cyfitter_cfg.c **** 		{
  78              		.loc 1 183 0
  79 0026 002B     		cmp	r3, #0
  80 0028 F4D1     		bne	.L4
  81              	.LBE2:
 178:Generated_Source\PSoC4/cyfitter_cfg.c **** 	{
  82              		.loc 1 178 0 discriminator 2
  83 002a 0137     		adds	r7, r7, #1
  84              	.LVL9:
  85              	.L2:
 178:Generated_Source\PSoC4/cyfitter_cfg.c **** 	{
  86              		.loc 1 178 0 is_stmt 0 discriminator 1
  87 002c 0C2F     		cmp	r7, #12
  88 002e EBD9     		bls	.L5
 188:Generated_Source\PSoC4/cyfitter_cfg.c **** 		}
 189:Generated_Source\PSoC4/cyfitter_cfg.c **** 	}
 190:Generated_Source\PSoC4/cyfitter_cfg.c **** }
  89              		.loc 1 190 0 is_stmt 1
  90              		@ sp needed
  91              	.LVL10:
  92              	.LVL11:
ARM GAS  C:\Users\becca\AppData\Local\Temp\ccLgcTze.s 			page 6


  93 0030 F0BD     		pop	{r4, r5, r6, r7, pc}
  94              		.cfi_endproc
  95              	.LFE4:
  96              		.size	cfg_write_bytes32, .-cfg_write_bytes32
  97 0032 C046     		.section	.text.CYMEMZERO,"ax",%progbits
  98              		.align	2
  99              		.code	16
 100              		.thumb_func
 101              		.type	CYMEMZERO, %function
 102              	CYMEMZERO:
 103              	.LFB1:
  77:Generated_Source\PSoC4/cyfitter_cfg.c **** 	(void)memset(s, 0, n);
 104              		.loc 1 77 0
 105              		.cfi_startproc
 106              		@ args = 0, pretend = 0, frame = 0
 107              		@ frame_needed = 0, uses_anonymous_args = 0
 108              	.LVL12:
 109 0000 10B5     		push	{r4, lr}
 110              		.cfi_def_cfa_offset 8
 111              		.cfi_offset 4, -8
 112              		.cfi_offset 14, -4
 113 0002 0A00     		movs	r2, r1
  78:Generated_Source\PSoC4/cyfitter_cfg.c **** }
 114              		.loc 1 78 0
 115 0004 0021     		movs	r1, #0
 116              	.LVL13:
 117 0006 FFF7FEFF 		bl	memset
 118              	.LVL14:
  79:Generated_Source\PSoC4/cyfitter_cfg.c **** CY_CFG_UNUSED
 119              		.loc 1 79 0
 120              		@ sp needed
 121 000a 10BD     		pop	{r4, pc}
 122              		.cfi_endproc
 123              	.LFE1:
 124              		.size	CYMEMZERO, .-CYMEMZERO
 125              		.section	.psocinit,"ax",%progbits
 126              		.align	2
 127              		.code	16
 128              		.thumb_func
 129              		.type	ClockSetup, %function
 130              	ClockSetup:
 131              	.LFB5:
 191:Generated_Source\PSoC4/cyfitter_cfg.c **** 
 192:Generated_Source\PSoC4/cyfitter_cfg.c **** 
 193:Generated_Source\PSoC4/cyfitter_cfg.c **** /*******************************************************************************
 194:Generated_Source\PSoC4/cyfitter_cfg.c **** * Function Name: ClockSetup
 195:Generated_Source\PSoC4/cyfitter_cfg.c **** ********************************************************************************
 196:Generated_Source\PSoC4/cyfitter_cfg.c **** *
 197:Generated_Source\PSoC4/cyfitter_cfg.c **** * Summary:
 198:Generated_Source\PSoC4/cyfitter_cfg.c **** *   Performs the initialization of all of the clocks in the device based on the
 199:Generated_Source\PSoC4/cyfitter_cfg.c **** *   settings in the Clock tab of the DWR.  This includes enabling the requested
 200:Generated_Source\PSoC4/cyfitter_cfg.c **** *   clocks and setting the necessary dividers to produce the desired frequency. 
 201:Generated_Source\PSoC4/cyfitter_cfg.c **** *
 202:Generated_Source\PSoC4/cyfitter_cfg.c **** * Parameters:
 203:Generated_Source\PSoC4/cyfitter_cfg.c **** *   void
 204:Generated_Source\PSoC4/cyfitter_cfg.c **** *
 205:Generated_Source\PSoC4/cyfitter_cfg.c **** * Return:
ARM GAS  C:\Users\becca\AppData\Local\Temp\ccLgcTze.s 			page 7


 206:Generated_Source\PSoC4/cyfitter_cfg.c **** *   void
 207:Generated_Source\PSoC4/cyfitter_cfg.c **** *
 208:Generated_Source\PSoC4/cyfitter_cfg.c **** *******************************************************************************/
 209:Generated_Source\PSoC4/cyfitter_cfg.c **** static void ClockSetup(void);
 210:Generated_Source\PSoC4/cyfitter_cfg.c **** CY_CFG_SECTION
 211:Generated_Source\PSoC4/cyfitter_cfg.c **** static void ClockSetup(void)
 212:Generated_Source\PSoC4/cyfitter_cfg.c **** {
 132              		.loc 1 212 0
 133              		.cfi_startproc
 134              		@ args = 0, pretend = 0, frame = 0
 135              		@ frame_needed = 0, uses_anonymous_args = 0
 136 0000 10B5     		push	{r4, lr}
 137              		.cfi_def_cfa_offset 8
 138              		.cfi_offset 4, -8
 139              		.cfi_offset 14, -4
 213:Generated_Source\PSoC4/cyfitter_cfg.c **** 
 214:Generated_Source\PSoC4/cyfitter_cfg.c **** 	/* Set Flash Cycles based on max possible frequency in case a glitch occurs during ClockSetup(). *
 215:Generated_Source\PSoC4/cyfitter_cfg.c **** 	CY_SET_REG32((void CYXDATA *)(CYREG_CPUSS_FLASH_CTL), (0x0012u));
 140              		.loc 1 215 0
 141 0002 1222     		movs	r2, #18
 142 0004 2E4B     		ldr	r3, .L8
 143 0006 1A60     		str	r2, [r3]
 216:Generated_Source\PSoC4/cyfitter_cfg.c **** 	/* Setup and trim IMO based on desired frequency. */
 217:Generated_Source\PSoC4/cyfitter_cfg.c **** 	CySysClkWriteImoFreq(48u);
 144              		.loc 1 217 0
 145 0008 3020     		movs	r0, #48
 146 000a FFF7FEFF 		bl	CySysClkWriteImoFreq
 147              	.LVL15:
 218:Generated_Source\PSoC4/cyfitter_cfg.c **** 	/* CYDEV_CLK_ILO_CONFIG Starting address: CYDEV_CLK_ILO_CONFIG */
 219:Generated_Source\PSoC4/cyfitter_cfg.c **** 	CY_SET_REG32((void *)(CYREG_CLK_ILO_CONFIG), 0x80000006u);
 148              		.loc 1 219 0
 149 000e 2D4A     		ldr	r2, .L8+4
 150 0010 2D4B     		ldr	r3, .L8+8
 151 0012 1A60     		str	r2, [r3]
 220:Generated_Source\PSoC4/cyfitter_cfg.c **** 
 221:Generated_Source\PSoC4/cyfitter_cfg.c **** 
 222:Generated_Source\PSoC4/cyfitter_cfg.c **** 	/* Setup phase aligned clocks */
 223:Generated_Source\PSoC4/cyfitter_cfg.c **** 	CY_SET_REG32((void *)CYREG_PERI_DIV_16_CTL5, 0x00002F00u);
 152              		.loc 1 223 0
 153 0014 BC22     		movs	r2, #188
 154 0016 9201     		lsls	r2, r2, #6
 155 0018 2C4B     		ldr	r3, .L8+12
 156 001a 1A60     		str	r2, [r3]
 224:Generated_Source\PSoC4/cyfitter_cfg.c **** 	CY_SET_REG32((void *)CYREG_PERI_DIV_CMD, 0x8000FF45u);
 157              		.loc 1 224 0
 158 001c 2C4B     		ldr	r3, .L8+16
 159 001e 2D49     		ldr	r1, .L8+20
 160 0020 1960     		str	r1, [r3]
 225:Generated_Source\PSoC4/cyfitter_cfg.c **** 	CY_SET_REG32((void *)CYREG_PERI_DIV_16_CTL6, 0x00002F00u);
 161              		.loc 1 225 0
 162 0022 2D49     		ldr	r1, .L8+24
 163 0024 0A60     		str	r2, [r1]
 226:Generated_Source\PSoC4/cyfitter_cfg.c **** 	CY_SET_REG32((void *)CYREG_PERI_DIV_CMD, 0x8000FF46u);
 164              		.loc 1 226 0
 165 0026 2D4A     		ldr	r2, .L8+28
 166 0028 1A60     		str	r2, [r3]
 227:Generated_Source\PSoC4/cyfitter_cfg.c **** 	CY_SET_REG32((void *)CYREG_PERI_DIV_16_CTL0, 0x0000FE00u);
ARM GAS  C:\Users\becca\AppData\Local\Temp\ccLgcTze.s 			page 8


 167              		.loc 1 227 0
 168 002a FE22     		movs	r2, #254
 169 002c 1202     		lsls	r2, r2, #8
 170 002e 2C49     		ldr	r1, .L8+32
 171 0030 0A60     		str	r2, [r1]
 228:Generated_Source\PSoC4/cyfitter_cfg.c **** 	CY_SET_REG32((void *)CYREG_PERI_DIV_CMD, 0x8000FF40u);
 172              		.loc 1 228 0
 173 0032 2C49     		ldr	r1, .L8+36
 174 0034 1960     		str	r1, [r3]
 229:Generated_Source\PSoC4/cyfitter_cfg.c **** 	CY_SET_REG32((void *)CYREG_PERI_DIV_16_CTL1, 0x0000FE00u);
 175              		.loc 1 229 0
 176 0036 2C49     		ldr	r1, .L8+40
 177 0038 0A60     		str	r2, [r1]
 230:Generated_Source\PSoC4/cyfitter_cfg.c **** 	CY_SET_REG32((void *)CYREG_PERI_DIV_CMD, 0x8000FF41u);
 178              		.loc 1 230 0
 179 003a 2C4A     		ldr	r2, .L8+44
 180 003c 1A60     		str	r2, [r3]
 231:Generated_Source\PSoC4/cyfitter_cfg.c **** 	CY_SET_REG32((void *)CYREG_PERI_DIV_16_CTL4, 0x00002200u);
 181              		.loc 1 231 0
 182 003e 8821     		movs	r1, #136
 183 0040 8901     		lsls	r1, r1, #6
 184 0042 2B4A     		ldr	r2, .L8+48
 185 0044 1160     		str	r1, [r2]
 232:Generated_Source\PSoC4/cyfitter_cfg.c **** 	CY_SET_REG32((void *)CYREG_PERI_DIV_CMD, 0x8000FF44u);
 186              		.loc 1 232 0
 187 0046 2B4A     		ldr	r2, .L8+52
 188 0048 1A60     		str	r2, [r3]
 233:Generated_Source\PSoC4/cyfitter_cfg.c **** 	CY_SET_REG32((void *)CYREG_PERI_DIV_16_CTL2, 0x00000200u);
 189              		.loc 1 233 0
 190 004a 8021     		movs	r1, #128
 191 004c 8900     		lsls	r1, r1, #2
 192 004e 2A4A     		ldr	r2, .L8+56
 193 0050 1160     		str	r1, [r2]
 234:Generated_Source\PSoC4/cyfitter_cfg.c **** 	CY_SET_REG32((void *)CYREG_PERI_DIV_CMD, 0x8000FF42u);
 194              		.loc 1 234 0
 195 0052 2A4A     		ldr	r2, .L8+60
 196 0054 1A60     		str	r2, [r3]
 235:Generated_Source\PSoC4/cyfitter_cfg.c **** 	CY_SET_REG32((void *)CYREG_PERI_DIV_16_CTL3, 0x00001D00u);
 197              		.loc 1 235 0
 198 0056 E821     		movs	r1, #232
 199 0058 4901     		lsls	r1, r1, #5
 200 005a 294A     		ldr	r2, .L8+64
 201 005c 1160     		str	r1, [r2]
 236:Generated_Source\PSoC4/cyfitter_cfg.c **** 	CY_SET_REG32((void *)CYREG_PERI_DIV_CMD, 0x8000FF43u);
 202              		.loc 1 236 0
 203 005e 294A     		ldr	r2, .L8+68
 204 0060 1A60     		str	r2, [r3]
 237:Generated_Source\PSoC4/cyfitter_cfg.c **** 
 238:Generated_Source\PSoC4/cyfitter_cfg.c **** 	/* CYDEV_CLK_IMO_CONFIG Starting address: CYDEV_CLK_IMO_CONFIG */
 239:Generated_Source\PSoC4/cyfitter_cfg.c **** 	CY_SET_REG32((void *)(CYREG_CLK_IMO_CONFIG), 0x82000000u);
 205              		.loc 1 239 0
 206 0062 8222     		movs	r2, #130
 207 0064 1206     		lsls	r2, r2, #24
 208 0066 284B     		ldr	r3, .L8+72
 209 0068 1A60     		str	r2, [r3]
 240:Generated_Source\PSoC4/cyfitter_cfg.c **** 
 241:Generated_Source\PSoC4/cyfitter_cfg.c **** 	/* CYDEV_CLK_SELECT Starting address: CYDEV_CLK_SELECT */
ARM GAS  C:\Users\becca\AppData\Local\Temp\ccLgcTze.s 			page 9


 242:Generated_Source\PSoC4/cyfitter_cfg.c **** 	CY_SET_REG32((void *)(CYREG_CLK_SELECT), 0x00040000u);
 210              		.loc 1 242 0
 211 006a 8022     		movs	r2, #128
 212 006c D202     		lsls	r2, r2, #11
 213 006e 274B     		ldr	r3, .L8+76
 214 0070 1A60     		str	r2, [r3]
 243:Generated_Source\PSoC4/cyfitter_cfg.c **** 
 244:Generated_Source\PSoC4/cyfitter_cfg.c **** 	/* CYDEV_PERI_PCLK_CTL14 Starting address: CYDEV_PERI_PCLK_CTL14 */
 245:Generated_Source\PSoC4/cyfitter_cfg.c **** 	CY_SET_REG32((void *)(CYREG_PERI_PCLK_CTL14), 0x00000045u);
 215              		.loc 1 245 0
 216 0072 4523     		movs	r3, #69
 217 0074 264A     		ldr	r2, .L8+80
 218 0076 1360     		str	r3, [r2]
 246:Generated_Source\PSoC4/cyfitter_cfg.c **** 
 247:Generated_Source\PSoC4/cyfitter_cfg.c **** 	/* CYDEV_PERI_PCLK_CTL13 Starting address: CYDEV_PERI_PCLK_CTL13 */
 248:Generated_Source\PSoC4/cyfitter_cfg.c **** 	CY_SET_REG32((void *)(CYREG_PERI_PCLK_CTL13), 0x00000045u);
 219              		.loc 1 248 0
 220 0078 264A     		ldr	r2, .L8+84
 221 007a 1360     		str	r3, [r2]
 249:Generated_Source\PSoC4/cyfitter_cfg.c **** 
 250:Generated_Source\PSoC4/cyfitter_cfg.c **** 	/* CYDEV_PERI_PCLK_CTL12 Starting address: CYDEV_PERI_PCLK_CTL12 */
 251:Generated_Source\PSoC4/cyfitter_cfg.c **** 	CY_SET_REG32((void *)(CYREG_PERI_PCLK_CTL12), 0x00000045u);
 222              		.loc 1 251 0
 223 007c 264A     		ldr	r2, .L8+88
 224 007e 1360     		str	r3, [r2]
 252:Generated_Source\PSoC4/cyfitter_cfg.c **** 
 253:Generated_Source\PSoC4/cyfitter_cfg.c **** 	/* CYDEV_PERI_PCLK_CTL11 Starting address: CYDEV_PERI_PCLK_CTL11 */
 254:Generated_Source\PSoC4/cyfitter_cfg.c **** 	CY_SET_REG32((void *)(CYREG_PERI_PCLK_CTL11), 0x00000045u);
 225              		.loc 1 254 0
 226 0080 264A     		ldr	r2, .L8+92
 227 0082 1360     		str	r3, [r2]
 255:Generated_Source\PSoC4/cyfitter_cfg.c **** 
 256:Generated_Source\PSoC4/cyfitter_cfg.c **** 	/* CYDEV_PERI_PCLK_CTL10 Starting address: CYDEV_PERI_PCLK_CTL10 */
 257:Generated_Source\PSoC4/cyfitter_cfg.c **** 	CY_SET_REG32((void *)(CYREG_PERI_PCLK_CTL10), 0x00000046u);
 228              		.loc 1 257 0
 229 0084 4622     		movs	r2, #70
 230 0086 264B     		ldr	r3, .L8+96
 231 0088 1A60     		str	r2, [r3]
 258:Generated_Source\PSoC4/cyfitter_cfg.c **** 
 259:Generated_Source\PSoC4/cyfitter_cfg.c **** 	/* CYDEV_PERI_PCLK_CTL7 Starting address: CYDEV_PERI_PCLK_CTL7 */
 260:Generated_Source\PSoC4/cyfitter_cfg.c **** 	CY_SET_REG32((void *)(CYREG_PERI_PCLK_CTL7), 0x00000040u);
 232              		.loc 1 260 0
 233 008a 063A     		subs	r2, r2, #6
 234 008c 254B     		ldr	r3, .L8+100
 235 008e 1A60     		str	r2, [r3]
 261:Generated_Source\PSoC4/cyfitter_cfg.c **** 
 262:Generated_Source\PSoC4/cyfitter_cfg.c **** 	/* CYDEV_PERI_PCLK_CTL6 Starting address: CYDEV_PERI_PCLK_CTL6 */
 263:Generated_Source\PSoC4/cyfitter_cfg.c **** 	CY_SET_REG32((void *)(CYREG_PERI_PCLK_CTL6), 0x00000041u);
 236              		.loc 1 263 0
 237 0090 0132     		adds	r2, r2, #1
 238 0092 254B     		ldr	r3, .L8+104
 239 0094 1A60     		str	r2, [r3]
 264:Generated_Source\PSoC4/cyfitter_cfg.c **** 
 265:Generated_Source\PSoC4/cyfitter_cfg.c **** 	/* CYDEV_PERI_PCLK_CTL4 Starting address: CYDEV_PERI_PCLK_CTL4 */
 266:Generated_Source\PSoC4/cyfitter_cfg.c **** 	CY_SET_REG32((void *)(CYREG_PERI_PCLK_CTL4), 0x00000044u);
 240              		.loc 1 266 0
 241 0096 0332     		adds	r2, r2, #3
ARM GAS  C:\Users\becca\AppData\Local\Temp\ccLgcTze.s 			page 10


 242 0098 244B     		ldr	r3, .L8+108
 243 009a 1A60     		str	r2, [r3]
 267:Generated_Source\PSoC4/cyfitter_cfg.c **** 
 268:Generated_Source\PSoC4/cyfitter_cfg.c **** 	/* CYDEV_PERI_PCLK_CTL3 Starting address: CYDEV_PERI_PCLK_CTL3 */
 269:Generated_Source\PSoC4/cyfitter_cfg.c **** 	CY_SET_REG32((void *)(CYREG_PERI_PCLK_CTL3), 0x00000042u);
 244              		.loc 1 269 0
 245 009c 023A     		subs	r2, r2, #2
 246 009e 244B     		ldr	r3, .L8+112
 247 00a0 1A60     		str	r2, [r3]
 270:Generated_Source\PSoC4/cyfitter_cfg.c **** 
 271:Generated_Source\PSoC4/cyfitter_cfg.c **** 	/* CYDEV_PERI_PCLK_CTL2 Starting address: CYDEV_PERI_PCLK_CTL2 */
 272:Generated_Source\PSoC4/cyfitter_cfg.c **** 	CY_SET_REG32((void *)(CYREG_PERI_PCLK_CTL2), 0x00000043u);
 248              		.loc 1 272 0
 249 00a2 0132     		adds	r2, r2, #1
 250 00a4 234B     		ldr	r3, .L8+116
 251 00a6 1A60     		str	r2, [r3]
 273:Generated_Source\PSoC4/cyfitter_cfg.c **** 
 274:Generated_Source\PSoC4/cyfitter_cfg.c **** 	(void)CyIntSetVector(8u, &CySysWdtIsr);
 252              		.loc 1 274 0
 253 00a8 2349     		ldr	r1, .L8+120
 254 00aa 0820     		movs	r0, #8
 255 00ac FFF7FEFF 		bl	CyIntSetVector
 256              	.LVL16:
 275:Generated_Source\PSoC4/cyfitter_cfg.c **** 	CyIntEnable(8u);
 257              		.loc 1 275 0
 258 00b0 0820     		movs	r0, #8
 259 00b2 FFF7FEFF 		bl	CyIntEnable
 260              	.LVL17:
 276:Generated_Source\PSoC4/cyfitter_cfg.c **** 	CY_SET_REG32((void *)(CYREG_WDT_CONFIG), 0x00000000u);
 261              		.loc 1 276 0
 262 00b6 0022     		movs	r2, #0
 263 00b8 204B     		ldr	r3, .L8+124
 264 00ba 1A60     		str	r2, [r3]
 277:Generated_Source\PSoC4/cyfitter_cfg.c **** }
 265              		.loc 1 277 0
 266              		@ sp needed
 267 00bc 10BD     		pop	{r4, pc}
 268              	.L9:
 269 00be C046     		.align	2
 270              	.L8:
 271 00c0 30001040 		.word	1074790448
 272 00c4 06000080 		.word	-2147483642
 273 00c8 04010B40 		.word	1074462980
 274 00cc 14030140 		.word	1073808148
 275 00d0 00000140 		.word	1073807360
 276 00d4 45FF0080 		.word	-2147418299
 277 00d8 18030140 		.word	1073808152
 278 00dc 46FF0080 		.word	-2147418298
 279 00e0 00030140 		.word	1073808128
 280 00e4 40FF0080 		.word	-2147418304
 281 00e8 04030140 		.word	1073808132
 282 00ec 41FF0080 		.word	-2147418303
 283 00f0 10030140 		.word	1073808144
 284 00f4 44FF0080 		.word	-2147418300
 285 00f8 08030140 		.word	1073808136
 286 00fc 42FF0080 		.word	-2147418302
 287 0100 0C030140 		.word	1073808140
ARM GAS  C:\Users\becca\AppData\Local\Temp\ccLgcTze.s 			page 11


 288 0104 43FF0080 		.word	-2147418301
 289 0108 08010B40 		.word	1074462984
 290 010c 00010B40 		.word	1074462976
 291 0110 38010140 		.word	1073807672
 292 0114 34010140 		.word	1073807668
 293 0118 30010140 		.word	1073807664
 294 011c 2C010140 		.word	1073807660
 295 0120 28010140 		.word	1073807656
 296 0124 1C010140 		.word	1073807644
 297 0128 18010140 		.word	1073807640
 298 012c 10010140 		.word	1073807632
 299 0130 0C010140 		.word	1073807628
 300 0134 08010140 		.word	1073807624
 301 0138 00000000 		.word	CySysWdtIsr
 302 013c 0C020B40 		.word	1074463244
 303              		.cfi_endproc
 304              	.LFE5:
 305              		.size	ClockSetup, .-ClockSetup
 306              		.section	.text.SetAnalogRoutingPumps,"ax",%progbits
 307              		.align	2
 308              		.global	SetAnalogRoutingPumps
 309              		.code	16
 310              		.thumb_func
 311              		.type	SetAnalogRoutingPumps, %function
 312              	SetAnalogRoutingPumps:
 313              	.LFB7:
 278:Generated_Source\PSoC4/cyfitter_cfg.c **** 
 279:Generated_Source\PSoC4/cyfitter_cfg.c **** 
 280:Generated_Source\PSoC4/cyfitter_cfg.c **** /* Analog API Functions */
 281:Generated_Source\PSoC4/cyfitter_cfg.c **** 
 282:Generated_Source\PSoC4/cyfitter_cfg.c **** 
 283:Generated_Source\PSoC4/cyfitter_cfg.c **** /*******************************************************************************
 284:Generated_Source\PSoC4/cyfitter_cfg.c **** * Function Name: AnalogSetDefault
 285:Generated_Source\PSoC4/cyfitter_cfg.c **** ********************************************************************************
 286:Generated_Source\PSoC4/cyfitter_cfg.c **** *
 287:Generated_Source\PSoC4/cyfitter_cfg.c **** * Summary:
 288:Generated_Source\PSoC4/cyfitter_cfg.c **** *  Sets up the analog portions of the chip to default values based on chip
 289:Generated_Source\PSoC4/cyfitter_cfg.c **** *  configuration options from the project.
 290:Generated_Source\PSoC4/cyfitter_cfg.c **** *
 291:Generated_Source\PSoC4/cyfitter_cfg.c **** * Parameters:
 292:Generated_Source\PSoC4/cyfitter_cfg.c **** *  void
 293:Generated_Source\PSoC4/cyfitter_cfg.c **** *
 294:Generated_Source\PSoC4/cyfitter_cfg.c **** * Return:
 295:Generated_Source\PSoC4/cyfitter_cfg.c **** *  void
 296:Generated_Source\PSoC4/cyfitter_cfg.c **** *
 297:Generated_Source\PSoC4/cyfitter_cfg.c **** *******************************************************************************/
 298:Generated_Source\PSoC4/cyfitter_cfg.c **** static void AnalogSetDefault(void);
 299:Generated_Source\PSoC4/cyfitter_cfg.c **** static void AnalogSetDefault(void)
 300:Generated_Source\PSoC4/cyfitter_cfg.c **** {
 301:Generated_Source\PSoC4/cyfitter_cfg.c **** 	CY_SET_XTND_REG32((void CYFAR *)CYREG_CTBM0_CTB_CTRL, 0x80000000u);
 302:Generated_Source\PSoC4/cyfitter_cfg.c **** 	CY_SET_XTND_REG32((void CYFAR *)CYREG_CTBM0_DFT_CTRL, 0x00000003u);
 303:Generated_Source\PSoC4/cyfitter_cfg.c **** 	CY_SET_XTND_REG32((void CYFAR *)CYREG_CTBM0_OA0_SW, 0x00044004u);
 304:Generated_Source\PSoC4/cyfitter_cfg.c **** 	CY_SET_XTND_REG32((void CYFAR *)CYREG_CTBM0_OA1_SW, 0x00044002u);
 305:Generated_Source\PSoC4/cyfitter_cfg.c **** 	CY_SET_XTND_REG32((void CYFAR *)CYREG_CTBM0_CTB_SW_HW_CTRL, 0x0000000Cu);
 306:Generated_Source\PSoC4/cyfitter_cfg.c **** 	CY_SET_XTND_REG32((void CYFAR *)CYREG_CTBM1_DFT_CTRL, 0x00000003u);
 307:Generated_Source\PSoC4/cyfitter_cfg.c **** 	CY_SET_XTND_REG32((void CYFAR *)CYREG_SAR_CTRL, 0x80000000u);
 308:Generated_Source\PSoC4/cyfitter_cfg.c **** 	CY_SET_XTND_REG32((void CYFAR *)CYREG_SAR_MUX_SWITCH0, 0x00400806u);
ARM GAS  C:\Users\becca\AppData\Local\Temp\ccLgcTze.s 			page 12


 309:Generated_Source\PSoC4/cyfitter_cfg.c **** 	CY_SET_XTND_REG32((void CYFAR *)CYREG_SAR_MUX_SWITCH_HW_CTRL, 0x0040000Eu);
 310:Generated_Source\PSoC4/cyfitter_cfg.c **** 	CY_SET_XTND_REG32((void CYFAR *)CYREG_PASS_DSAB_DSAB_CTRL, 0x00000000u);
 311:Generated_Source\PSoC4/cyfitter_cfg.c **** 	SetAnalogRoutingPumps(1);
 312:Generated_Source\PSoC4/cyfitter_cfg.c **** }
 313:Generated_Source\PSoC4/cyfitter_cfg.c **** 
 314:Generated_Source\PSoC4/cyfitter_cfg.c **** 
 315:Generated_Source\PSoC4/cyfitter_cfg.c **** /*******************************************************************************
 316:Generated_Source\PSoC4/cyfitter_cfg.c **** * Function Name: SetAnalogRoutingPumps
 317:Generated_Source\PSoC4/cyfitter_cfg.c **** ********************************************************************************
 318:Generated_Source\PSoC4/cyfitter_cfg.c **** *
 319:Generated_Source\PSoC4/cyfitter_cfg.c **** * Summary:
 320:Generated_Source\PSoC4/cyfitter_cfg.c **** * Enables or disables the analog pumps feeding analog routing switches.
 321:Generated_Source\PSoC4/cyfitter_cfg.c **** * Intended to be called at startup, based on the Vdda system configuration;
 322:Generated_Source\PSoC4/cyfitter_cfg.c **** * may be called during operation when the user informs us that the Vdda voltage crossed the pump th
 323:Generated_Source\PSoC4/cyfitter_cfg.c **** *
 324:Generated_Source\PSoC4/cyfitter_cfg.c **** * Parameters:
 325:Generated_Source\PSoC4/cyfitter_cfg.c **** *  enabled - 1 to enable the pumps, 0 to disable the pumps
 326:Generated_Source\PSoC4/cyfitter_cfg.c **** *
 327:Generated_Source\PSoC4/cyfitter_cfg.c **** * Return:
 328:Generated_Source\PSoC4/cyfitter_cfg.c **** *  void
 329:Generated_Source\PSoC4/cyfitter_cfg.c **** *
 330:Generated_Source\PSoC4/cyfitter_cfg.c **** *******************************************************************************/
 331:Generated_Source\PSoC4/cyfitter_cfg.c **** void SetAnalogRoutingPumps(uint8 enabled)
 332:Generated_Source\PSoC4/cyfitter_cfg.c **** {
 314              		.loc 1 332 0
 315              		.cfi_startproc
 316              		@ args = 0, pretend = 0, frame = 0
 317              		@ frame_needed = 0, uses_anonymous_args = 0
 318              		@ link register save eliminated.
 319              	.LVL18:
 333:Generated_Source\PSoC4/cyfitter_cfg.c **** 	uint32 regValue = CY_GET_XTND_REG32((void *)(CYREG_SAR_PUMP_CTRL));
 320              		.loc 1 333 0
 321 0000 064B     		ldr	r3, .L13
 322 0002 1B68     		ldr	r3, [r3]
 323              	.LVL19:
 334:Generated_Source\PSoC4/cyfitter_cfg.c **** 	if (enabled != 0u)
 324              		.loc 1 334 0
 325 0004 0028     		cmp	r0, #0
 326 0006 03D0     		beq	.L11
 335:Generated_Source\PSoC4/cyfitter_cfg.c **** 	{
 336:Generated_Source\PSoC4/cyfitter_cfg.c **** 		regValue |= 0x80000000u;
 327              		.loc 1 336 0
 328 0008 8022     		movs	r2, #128
 329 000a 1206     		lsls	r2, r2, #24
 330 000c 1343     		orrs	r3, r2
 331              	.LVL20:
 332 000e 01E0     		b	.L12
 333              	.L11:
 337:Generated_Source\PSoC4/cyfitter_cfg.c **** 	}
 338:Generated_Source\PSoC4/cyfitter_cfg.c **** 	else
 339:Generated_Source\PSoC4/cyfitter_cfg.c **** 	{
 340:Generated_Source\PSoC4/cyfitter_cfg.c **** 		regValue &= ~0x80000000u;
 334              		.loc 1 340 0
 335 0010 5B00     		lsls	r3, r3, #1
 336              	.LVL21:
 337 0012 5B08     		lsrs	r3, r3, #1
 338              	.LVL22:
ARM GAS  C:\Users\becca\AppData\Local\Temp\ccLgcTze.s 			page 13


 339              	.L12:
 341:Generated_Source\PSoC4/cyfitter_cfg.c **** 	}
 342:Generated_Source\PSoC4/cyfitter_cfg.c **** 	CY_SET_XTND_REG32((void *)(CYREG_SAR_PUMP_CTRL), regValue);
 340              		.loc 1 342 0
 341 0014 014A     		ldr	r2, .L13
 342 0016 1360     		str	r3, [r2]
 343:Generated_Source\PSoC4/cyfitter_cfg.c **** }
 343              		.loc 1 343 0
 344              		@ sp needed
 345 0018 7047     		bx	lr
 346              	.L14:
 347 001a C046     		.align	2
 348              	.L13:
 349 001c 80033A40 		.word	1077543808
 350              		.cfi_endproc
 351              	.LFE7:
 352              		.size	SetAnalogRoutingPumps, .-SetAnalogRoutingPumps
 353              		.section	.text.AnalogSetDefault,"ax",%progbits
 354              		.align	2
 355              		.code	16
 356              		.thumb_func
 357              		.type	AnalogSetDefault, %function
 358              	AnalogSetDefault:
 359              	.LFB6:
 300:Generated_Source\PSoC4/cyfitter_cfg.c **** 	CY_SET_XTND_REG32((void CYFAR *)CYREG_CTBM0_CTB_CTRL, 0x80000000u);
 360              		.loc 1 300 0
 361              		.cfi_startproc
 362              		@ args = 0, pretend = 0, frame = 0
 363              		@ frame_needed = 0, uses_anonymous_args = 0
 364 0000 10B5     		push	{r4, lr}
 365              		.cfi_def_cfa_offset 8
 366              		.cfi_offset 4, -8
 367              		.cfi_offset 14, -4
 301:Generated_Source\PSoC4/cyfitter_cfg.c **** 	CY_SET_XTND_REG32((void CYFAR *)CYREG_CTBM0_DFT_CTRL, 0x00000003u);
 368              		.loc 1 301 0
 369 0002 8023     		movs	r3, #128
 370 0004 1B06     		lsls	r3, r3, #24
 371 0006 0F4A     		ldr	r2, .L16
 372 0008 1360     		str	r3, [r2]
 302:Generated_Source\PSoC4/cyfitter_cfg.c **** 	CY_SET_XTND_REG32((void CYFAR *)CYREG_CTBM0_OA0_SW, 0x00044004u);
 373              		.loc 1 302 0
 374 000a 0322     		movs	r2, #3
 375 000c 0E49     		ldr	r1, .L16+4
 376 000e 0A60     		str	r2, [r1]
 303:Generated_Source\PSoC4/cyfitter_cfg.c **** 	CY_SET_XTND_REG32((void CYFAR *)CYREG_CTBM0_OA1_SW, 0x00044002u);
 377              		.loc 1 303 0
 378 0010 0E48     		ldr	r0, .L16+8
 379 0012 0F49     		ldr	r1, .L16+12
 380 0014 0860     		str	r0, [r1]
 304:Generated_Source\PSoC4/cyfitter_cfg.c **** 	CY_SET_XTND_REG32((void CYFAR *)CYREG_CTBM0_CTB_SW_HW_CTRL, 0x0000000Cu);
 381              		.loc 1 304 0
 382 0016 0F48     		ldr	r0, .L16+16
 383 0018 0F49     		ldr	r1, .L16+20
 384 001a 0860     		str	r0, [r1]
 305:Generated_Source\PSoC4/cyfitter_cfg.c **** 	CY_SET_XTND_REG32((void CYFAR *)CYREG_CTBM1_DFT_CTRL, 0x00000003u);
 385              		.loc 1 305 0
 386 001c 0C20     		movs	r0, #12
ARM GAS  C:\Users\becca\AppData\Local\Temp\ccLgcTze.s 			page 14


 387 001e 0F49     		ldr	r1, .L16+24
 388 0020 0860     		str	r0, [r1]
 306:Generated_Source\PSoC4/cyfitter_cfg.c **** 	CY_SET_XTND_REG32((void CYFAR *)CYREG_SAR_CTRL, 0x80000000u);
 389              		.loc 1 306 0
 390 0022 0F49     		ldr	r1, .L16+28
 391 0024 0A60     		str	r2, [r1]
 307:Generated_Source\PSoC4/cyfitter_cfg.c **** 	CY_SET_XTND_REG32((void CYFAR *)CYREG_SAR_MUX_SWITCH0, 0x00400806u);
 392              		.loc 1 307 0
 393 0026 0F4A     		ldr	r2, .L16+32
 394 0028 1360     		str	r3, [r2]
 308:Generated_Source\PSoC4/cyfitter_cfg.c **** 	CY_SET_XTND_REG32((void CYFAR *)CYREG_SAR_MUX_SWITCH_HW_CTRL, 0x0040000Eu);
 395              		.loc 1 308 0
 396 002a 0F4A     		ldr	r2, .L16+36
 397 002c 0F4B     		ldr	r3, .L16+40
 398 002e 1A60     		str	r2, [r3]
 309:Generated_Source\PSoC4/cyfitter_cfg.c **** 	CY_SET_XTND_REG32((void CYFAR *)CYREG_PASS_DSAB_DSAB_CTRL, 0x00000000u);
 399              		.loc 1 309 0
 400 0030 0F4A     		ldr	r2, .L16+44
 401 0032 104B     		ldr	r3, .L16+48
 402 0034 1A60     		str	r2, [r3]
 310:Generated_Source\PSoC4/cyfitter_cfg.c **** 	SetAnalogRoutingPumps(1);
 403              		.loc 1 310 0
 404 0036 0022     		movs	r2, #0
 405 0038 0F4B     		ldr	r3, .L16+52
 406 003a 1A60     		str	r2, [r3]
 311:Generated_Source\PSoC4/cyfitter_cfg.c **** }
 407              		.loc 1 311 0
 408 003c 0B38     		subs	r0, r0, #11
 409 003e FFF7FEFF 		bl	SetAnalogRoutingPumps
 410              	.LVL23:
 312:Generated_Source\PSoC4/cyfitter_cfg.c **** 
 411              		.loc 1 312 0
 412              		@ sp needed
 413 0042 10BD     		pop	{r4, pc}
 414              	.L17:
 415              		.align	2
 416              	.L16:
 417 0044 00003040 		.word	1076887552
 418 0048 30003040 		.word	1076887600
 419 004c 04400400 		.word	278532
 420 0050 80003040 		.word	1076887680
 421 0054 02400400 		.word	278530
 422 0058 88003040 		.word	1076887688
 423 005c C0003040 		.word	1076887744
 424 0060 30003140 		.word	1076953136
 425 0064 00003A40 		.word	1077542912
 426 0068 06084000 		.word	4196358
 427 006c 00033A40 		.word	1077543680
 428 0070 0E004000 		.word	4194318
 429 0074 40033A40 		.word	1077543744
 430 0078 000E3F40 		.word	1077874176
 431              		.cfi_endproc
 432              	.LFE6:
 433              		.size	AnalogSetDefault, .-AnalogSetDefault
 434              		.section	.psocinit
 435              		.align	2
 436              		.global	cyfitter_cfg
ARM GAS  C:\Users\becca\AppData\Local\Temp\ccLgcTze.s 			page 15


 437              		.code	16
 438              		.thumb_func
 439              		.type	cyfitter_cfg, %function
 440              	cyfitter_cfg:
 441              	.LFB8:
 344:Generated_Source\PSoC4/cyfitter_cfg.c **** 
 345:Generated_Source\PSoC4/cyfitter_cfg.c **** 
 346:Generated_Source\PSoC4/cyfitter_cfg.c **** 
 347:Generated_Source\PSoC4/cyfitter_cfg.c **** 
 348:Generated_Source\PSoC4/cyfitter_cfg.c **** /*******************************************************************************
 349:Generated_Source\PSoC4/cyfitter_cfg.c **** * Function Name: cyfitter_cfg
 350:Generated_Source\PSoC4/cyfitter_cfg.c **** ********************************************************************************
 351:Generated_Source\PSoC4/cyfitter_cfg.c **** * Summary:
 352:Generated_Source\PSoC4/cyfitter_cfg.c **** *  This function is called by the start-up code for the selected device. It
 353:Generated_Source\PSoC4/cyfitter_cfg.c **** *  performs all of the necessary device configuration based on the design
 354:Generated_Source\PSoC4/cyfitter_cfg.c **** *  settings.  This includes settings from the Design Wide Resources (DWR) such
 355:Generated_Source\PSoC4/cyfitter_cfg.c **** *  as Clocks and Pins as well as any component configuration that is necessary.
 356:Generated_Source\PSoC4/cyfitter_cfg.c **** *
 357:Generated_Source\PSoC4/cyfitter_cfg.c **** * Parameters:
 358:Generated_Source\PSoC4/cyfitter_cfg.c **** *   void
 359:Generated_Source\PSoC4/cyfitter_cfg.c **** *
 360:Generated_Source\PSoC4/cyfitter_cfg.c **** * Return:
 361:Generated_Source\PSoC4/cyfitter_cfg.c **** *   void
 362:Generated_Source\PSoC4/cyfitter_cfg.c **** *
 363:Generated_Source\PSoC4/cyfitter_cfg.c **** *******************************************************************************/
 364:Generated_Source\PSoC4/cyfitter_cfg.c **** CY_CFG_SECTION
 365:Generated_Source\PSoC4/cyfitter_cfg.c **** void cyfitter_cfg(void)
 366:Generated_Source\PSoC4/cyfitter_cfg.c **** {
 442              		.loc 1 366 0
 443              		.cfi_startproc
 444              		@ args = 0, pretend = 0, frame = 0
 445              		@ frame_needed = 0, uses_anonymous_args = 0
 446 0140 10B5     		push	{r4, lr}
 447              		.cfi_def_cfa_offset 8
 448              		.cfi_offset 4, -8
 449              		.cfi_offset 14, -4
 367:Generated_Source\PSoC4/cyfitter_cfg.c **** 	/* Disable interrupts by default. Let user enable if/when they want. */
 368:Generated_Source\PSoC4/cyfitter_cfg.c **** 	CyGlobalIntDisable;
 450              		.loc 1 368 0
 451              		.syntax divided
 452              	@ 368 "Generated_Source\PSoC4\cyfitter_cfg.c" 1
 453 0142 72B6     		CPSID   i
 454              	@ 0 "" 2
 369:Generated_Source\PSoC4/cyfitter_cfg.c **** 
 370:Generated_Source\PSoC4/cyfitter_cfg.c **** 	/* Enable the clock in the interrupt controller for the routed interrupts */
 371:Generated_Source\PSoC4/cyfitter_cfg.c **** 	CY_SET_REG8((void *)CYREG_UDB_UDB_INT_CLK_CTL, 0x01u);
 455              		.loc 1 371 0
 456              		.thumb
 457              		.syntax unified
 458 0144 0122     		movs	r2, #1
 459 0146 4E4B     		ldr	r3, .L21
 460 0148 1A70     		strb	r2, [r3]
 461              	.LVL24:
 462              	.LBB3:
 372:Generated_Source\PSoC4/cyfitter_cfg.c **** 	{
 373:Generated_Source\PSoC4/cyfitter_cfg.c **** 		static const uint32 CYCODE cy_cfg_addr_table[] = {
 374:Generated_Source\PSoC4/cyfitter_cfg.c **** 			0x400F3101u, /* Base address: 0x400F3100 Count: 1 */
ARM GAS  C:\Users\becca\AppData\Local\Temp\ccLgcTze.s 			page 16


 375:Generated_Source\PSoC4/cyfitter_cfg.c **** 			0x400F3501u, /* Base address: 0x400F3500 Count: 1 */
 376:Generated_Source\PSoC4/cyfitter_cfg.c **** 			0x400F3604u, /* Base address: 0x400F3600 Count: 4 */
 377:Generated_Source\PSoC4/cyfitter_cfg.c **** 			0x400F3707u, /* Base address: 0x400F3700 Count: 7 */
 378:Generated_Source\PSoC4/cyfitter_cfg.c **** 			0x400F4006u, /* Base address: 0x400F4000 Count: 6 */
 379:Generated_Source\PSoC4/cyfitter_cfg.c **** 			0x400F4103u, /* Base address: 0x400F4100 Count: 3 */
 380:Generated_Source\PSoC4/cyfitter_cfg.c **** 			0x400F4202u, /* Base address: 0x400F4200 Count: 2 */
 381:Generated_Source\PSoC4/cyfitter_cfg.c **** 			0x400F4303u, /* Base address: 0x400F4300 Count: 3 */
 382:Generated_Source\PSoC4/cyfitter_cfg.c **** 			0x400F4403u, /* Base address: 0x400F4400 Count: 3 */
 383:Generated_Source\PSoC4/cyfitter_cfg.c **** 			0x400F4507u, /* Base address: 0x400F4500 Count: 7 */
 384:Generated_Source\PSoC4/cyfitter_cfg.c **** 			0x400F4607u, /* Base address: 0x400F4600 Count: 7 */
 385:Generated_Source\PSoC4/cyfitter_cfg.c **** 			0x400F4705u, /* Base address: 0x400F4700 Count: 5 */
 386:Generated_Source\PSoC4/cyfitter_cfg.c **** 			0x400F6002u, /* Base address: 0x400F6000 Count: 2 */
 387:Generated_Source\PSoC4/cyfitter_cfg.c **** 		};
 388:Generated_Source\PSoC4/cyfitter_cfg.c **** 
 389:Generated_Source\PSoC4/cyfitter_cfg.c **** 		static const cy_cfg_addrvalue_t CYCODE cy_cfg_data_table[] = {
 390:Generated_Source\PSoC4/cyfitter_cfg.c **** 			{0xE2u, 0x08u},
 391:Generated_Source\PSoC4/cyfitter_cfg.c **** 			{0xECu, 0x20u},
 392:Generated_Source\PSoC4/cyfitter_cfg.c **** 			{0x38u, 0xA8u},
 393:Generated_Source\PSoC4/cyfitter_cfg.c **** 			{0x3Eu, 0x54u},
 394:Generated_Source\PSoC4/cyfitter_cfg.c **** 			{0x58u, 0x04u},
 395:Generated_Source\PSoC4/cyfitter_cfg.c **** 			{0x5Fu, 0x01u},
 396:Generated_Source\PSoC4/cyfitter_cfg.c **** 			{0x1Cu, 0x10u},
 397:Generated_Source\PSoC4/cyfitter_cfg.c **** 			{0x1Du, 0x90u},
 398:Generated_Source\PSoC4/cyfitter_cfg.c **** 			{0x1Fu, 0x80u},
 399:Generated_Source\PSoC4/cyfitter_cfg.c **** 			{0x87u, 0x80u},
 400:Generated_Source\PSoC4/cyfitter_cfg.c **** 			{0x89u, 0x80u},
 401:Generated_Source\PSoC4/cyfitter_cfg.c **** 			{0x8Cu, 0x10u},
 402:Generated_Source\PSoC4/cyfitter_cfg.c **** 			{0x8Du, 0x10u},
 403:Generated_Source\PSoC4/cyfitter_cfg.c **** 			{0x53u, 0x20u},
 404:Generated_Source\PSoC4/cyfitter_cfg.c **** 			{0x6Bu, 0x08u},
 405:Generated_Source\PSoC4/cyfitter_cfg.c **** 			{0x87u, 0x08u},
 406:Generated_Source\PSoC4/cyfitter_cfg.c **** 			{0xD4u, 0x20u},
 407:Generated_Source\PSoC4/cyfitter_cfg.c **** 			{0xDAu, 0x40u},
 408:Generated_Source\PSoC4/cyfitter_cfg.c **** 			{0xE2u, 0x10u},
 409:Generated_Source\PSoC4/cyfitter_cfg.c **** 			{0x08u, 0x01u},
 410:Generated_Source\PSoC4/cyfitter_cfg.c **** 			{0xA7u, 0x20u},
 411:Generated_Source\PSoC4/cyfitter_cfg.c **** 			{0xC2u, 0x10u},
 412:Generated_Source\PSoC4/cyfitter_cfg.c **** 			{0xA7u, 0x20u},
 413:Generated_Source\PSoC4/cyfitter_cfg.c **** 			{0xB0u, 0x01u},
 414:Generated_Source\PSoC4/cyfitter_cfg.c **** 			{0x87u, 0x20u},
 415:Generated_Source\PSoC4/cyfitter_cfg.c **** 			{0xA7u, 0x20u},
 416:Generated_Source\PSoC4/cyfitter_cfg.c **** 			{0xE6u, 0x10u},
 417:Generated_Source\PSoC4/cyfitter_cfg.c **** 			{0x1Fu, 0x40u},
 418:Generated_Source\PSoC4/cyfitter_cfg.c **** 			{0x87u, 0x40u},
 419:Generated_Source\PSoC4/cyfitter_cfg.c **** 			{0xC6u, 0x01u},
 420:Generated_Source\PSoC4/cyfitter_cfg.c **** 			{0x38u, 0x02u},
 421:Generated_Source\PSoC4/cyfitter_cfg.c **** 			{0x3Cu, 0x08u},
 422:Generated_Source\PSoC4/cyfitter_cfg.c **** 			{0x44u, 0x01u},
 423:Generated_Source\PSoC4/cyfitter_cfg.c **** 			{0x50u, 0x04u},
 424:Generated_Source\PSoC4/cyfitter_cfg.c **** 			{0xCEu, 0x03u},
 425:Generated_Source\PSoC4/cyfitter_cfg.c **** 			{0xD0u, 0x04u},
 426:Generated_Source\PSoC4/cyfitter_cfg.c **** 			{0xD4u, 0x04u},
 427:Generated_Source\PSoC4/cyfitter_cfg.c **** 			{0x38u, 0x02u},
 428:Generated_Source\PSoC4/cyfitter_cfg.c **** 			{0x3Cu, 0x08u},
 429:Generated_Source\PSoC4/cyfitter_cfg.c **** 			{0x94u, 0x0Au},
 430:Generated_Source\PSoC4/cyfitter_cfg.c **** 			{0xA4u, 0x04u},
 431:Generated_Source\PSoC4/cyfitter_cfg.c **** 			{0xB0u, 0x01u},
ARM GAS  C:\Users\becca\AppData\Local\Temp\ccLgcTze.s 			page 17


 432:Generated_Source\PSoC4/cyfitter_cfg.c **** 			{0xCEu, 0x03u},
 433:Generated_Source\PSoC4/cyfitter_cfg.c **** 			{0xECu, 0x04u},
 434:Generated_Source\PSoC4/cyfitter_cfg.c **** 			{0x88u, 0x04u},
 435:Generated_Source\PSoC4/cyfitter_cfg.c **** 			{0x8Cu, 0x05u},
 436:Generated_Source\PSoC4/cyfitter_cfg.c **** 			{0x94u, 0x0Au},
 437:Generated_Source\PSoC4/cyfitter_cfg.c **** 			{0xA4u, 0x04u},
 438:Generated_Source\PSoC4/cyfitter_cfg.c **** 			{0xE0u, 0x0Eu},
 439:Generated_Source\PSoC4/cyfitter_cfg.c **** 			{0x02u, 0x01u},
 440:Generated_Source\PSoC4/cyfitter_cfg.c **** 			{0x11u, 0x01u},
 441:Generated_Source\PSoC4/cyfitter_cfg.c **** 		};
 442:Generated_Source\PSoC4/cyfitter_cfg.c **** 
 443:Generated_Source\PSoC4/cyfitter_cfg.c **** 
 444:Generated_Source\PSoC4/cyfitter_cfg.c **** 
 445:Generated_Source\PSoC4/cyfitter_cfg.c **** 		CYPACKED typedef struct {
 446:Generated_Source\PSoC4/cyfitter_cfg.c **** 			void CYFAR *address;
 447:Generated_Source\PSoC4/cyfitter_cfg.c **** 			uint16 size;
 448:Generated_Source\PSoC4/cyfitter_cfg.c **** 		} CYPACKED_ATTR cfg_memset_t;
 449:Generated_Source\PSoC4/cyfitter_cfg.c **** 
 450:Generated_Source\PSoC4/cyfitter_cfg.c **** 		static const cfg_memset_t CYCODE cfg_memset_list[] = {
 451:Generated_Source\PSoC4/cyfitter_cfg.c **** 			/* address, size */
 452:Generated_Source\PSoC4/cyfitter_cfg.c **** 			{(void CYFAR *)(CYDEV_UDB_P0_U0_BASE), 2048u},
 453:Generated_Source\PSoC4/cyfitter_cfg.c **** 			{(void CYFAR *)(CYDEV_UDB_DSI0_BASE), 2048u},
 454:Generated_Source\PSoC4/cyfitter_cfg.c **** 		};
 455:Generated_Source\PSoC4/cyfitter_cfg.c **** 
 456:Generated_Source\PSoC4/cyfitter_cfg.c **** 		uint8 CYDATA i;
 457:Generated_Source\PSoC4/cyfitter_cfg.c **** 
 458:Generated_Source\PSoC4/cyfitter_cfg.c **** 		/* Zero out critical memory blocks before beginning configuration */
 459:Generated_Source\PSoC4/cyfitter_cfg.c **** 		for (i = 0u; i < (sizeof(cfg_memset_list)/sizeof(cfg_memset_list[0])); i++)
 463              		.loc 1 459 0
 464 014a 0024     		movs	r4, #0
 465 014c 0FE0     		b	.L19
 466              	.LVL25:
 467              	.L20:
 468              	.LBB4:
 460:Generated_Source\PSoC4/cyfitter_cfg.c **** 		{
 461:Generated_Source\PSoC4/cyfitter_cfg.c **** 			const cfg_memset_t CYCODE * CYDATA ms = &cfg_memset_list[i];
 462:Generated_Source\PSoC4/cyfitter_cfg.c **** 			CYMEMZERO(ms->address, (size_t)(uint32)(ms->size));
 469              		.loc 1 462 0 discriminator 3
 470 014e 4D48     		ldr	r0, .L21+4
 471 0150 6200     		lsls	r2, r4, #1
 472 0152 1319     		adds	r3, r2, r4
 473 0154 5900     		lsls	r1, r3, #1
 474 0156 0B00     		movs	r3, r1
 475 0158 4118     		adds	r1, r0, r1
 476 015a 8988     		ldrh	r1, [r1, #4]
 477 015c 1A5A     		ldrh	r2, [r3, r0]
 478 015e C318     		adds	r3, r0, r3
 479 0160 5888     		ldrh	r0, [r3, #2]
 480 0162 0004     		lsls	r0, r0, #16
 481 0164 1043     		orrs	r0, r2
 482 0166 FFF7FEFF 		bl	CYMEMZERO
 483              	.LVL26:
 484              	.LBE4:
 459:Generated_Source\PSoC4/cyfitter_cfg.c **** 		{
 485              		.loc 1 459 0 discriminator 3
 486 016a 0134     		adds	r4, r4, #1
 487              	.LVL27:
ARM GAS  C:\Users\becca\AppData\Local\Temp\ccLgcTze.s 			page 18


 488 016c E4B2     		uxtb	r4, r4
 489              	.LVL28:
 490              	.L19:
 459:Generated_Source\PSoC4/cyfitter_cfg.c **** 		{
 491              		.loc 1 459 0 is_stmt 0 discriminator 1
 492 016e 012C     		cmp	r4, #1
 493 0170 EDD9     		bls	.L20
 463:Generated_Source\PSoC4/cyfitter_cfg.c **** 		}
 464:Generated_Source\PSoC4/cyfitter_cfg.c **** 
 465:Generated_Source\PSoC4/cyfitter_cfg.c **** 		cfg_write_bytes32(cy_cfg_addr_table, cy_cfg_data_table);
 494              		.loc 1 465 0 is_stmt 1
 495 0172 4448     		ldr	r0, .L21+4
 496 0174 0100     		movs	r1, r0
 497 0176 0C31     		adds	r1, r1, #12
 498 0178 7430     		adds	r0, r0, #116
 499 017a FFF7FEFF 		bl	cfg_write_bytes32
 500              	.LVL29:
 466:Generated_Source\PSoC4/cyfitter_cfg.c **** 
 467:Generated_Source\PSoC4/cyfitter_cfg.c **** 		/* HSIOM Starting address: CYDEV_HSIOM_BASE */
 468:Generated_Source\PSoC4/cyfitter_cfg.c **** 		CY_SET_REG32((void *)(CYDEV_HSIOM_BASE), 0xFFFF0000u);
 501              		.loc 1 468 0
 502 017e 424A     		ldr	r2, .L21+8
 503 0180 424B     		ldr	r3, .L21+12
 504 0182 1A60     		str	r2, [r3]
 469:Generated_Source\PSoC4/cyfitter_cfg.c **** 		CY_SET_REG32((void *)(CYREG_HSIOM_PORT_SEL1), 0x000000E0u);
 505              		.loc 1 469 0
 506 0184 E022     		movs	r2, #224
 507 0186 424B     		ldr	r3, .L21+16
 508 0188 1A60     		str	r2, [r3]
 470:Generated_Source\PSoC4/cyfitter_cfg.c **** 		CY_SET_REG32((void *)(CYREG_HSIOM_PORT_SEL2), 0x08080000u);
 509              		.loc 1 470 0
 510 018a 424A     		ldr	r2, .L21+20
 511 018c 424B     		ldr	r3, .L21+24
 512 018e 1A60     		str	r2, [r3]
 471:Generated_Source\PSoC4/cyfitter_cfg.c **** 		CY_SET_REG32((void *)(CYREG_HSIOM_PORT_SEL3), 0x0008EE00u);
 513              		.loc 1 471 0
 514 0190 424A     		ldr	r2, .L21+28
 515 0192 434B     		ldr	r3, .L21+32
 516 0194 1A60     		str	r2, [r3]
 472:Generated_Source\PSoC4/cyfitter_cfg.c **** 		CY_SET_REG32((void *)(CYREG_HSIOM_PORT_SEL4), 0x0000000Eu);
 517              		.loc 1 472 0
 518 0196 0E21     		movs	r1, #14
 519 0198 424B     		ldr	r3, .L21+36
 520 019a 1960     		str	r1, [r3]
 473:Generated_Source\PSoC4/cyfitter_cfg.c **** 		CY_SET_REG32((void *)(CYREG_HSIOM_PORT_SEL5), 0x00007699u);
 521              		.loc 1 473 0
 522 019c 424A     		ldr	r2, .L21+40
 523 019e 434B     		ldr	r3, .L21+44
 524 01a0 1A60     		str	r2, [r3]
 474:Generated_Source\PSoC4/cyfitter_cfg.c **** 
 475:Generated_Source\PSoC4/cyfitter_cfg.c **** 		/* UDB_PA_0 Starting address: CYDEV_UDB_PA0_BASE */
 476:Generated_Source\PSoC4/cyfitter_cfg.c **** 		CY_SET_REG32((void *)(CYDEV_UDB_PA0_BASE), 0x00990000u);
 525              		.loc 1 476 0
 526 01a2 9923     		movs	r3, #153
 527 01a4 1B04     		lsls	r3, r3, #16
 528 01a6 424A     		ldr	r2, .L21+48
 529 01a8 1360     		str	r3, [r2]
ARM GAS  C:\Users\becca\AppData\Local\Temp\ccLgcTze.s 			page 19


 477:Generated_Source\PSoC4/cyfitter_cfg.c **** 		CY_SET_REG32((void *)(CYREG_UDB_PA0_CFG8), 0x00050000u);
 530              		.loc 1 477 0
 531 01aa A020     		movs	r0, #160
 532 01ac C002     		lsls	r0, r0, #11
 533 01ae 414A     		ldr	r2, .L21+52
 534 01b0 1060     		str	r0, [r2]
 478:Generated_Source\PSoC4/cyfitter_cfg.c **** 
 479:Generated_Source\PSoC4/cyfitter_cfg.c **** 		/* UDB_PA_1 Starting address: CYDEV_UDB_PA1_BASE */
 480:Generated_Source\PSoC4/cyfitter_cfg.c **** 		CY_SET_REG32((void *)(CYDEV_UDB_PA1_BASE), 0x00990004u);
 535              		.loc 1 480 0
 536 01b2 4148     		ldr	r0, .L21+56
 537 01b4 414A     		ldr	r2, .L21+60
 538 01b6 1060     		str	r0, [r2]
 481:Generated_Source\PSoC4/cyfitter_cfg.c **** 		CY_SET_REG32((void *)(CYREG_UDB_PA1_CFG4), 0x02000000u);
 539              		.loc 1 481 0
 540 01b8 8020     		movs	r0, #128
 541 01ba 8004     		lsls	r0, r0, #18
 542 01bc 404A     		ldr	r2, .L21+64
 543 01be 1060     		str	r0, [r2]
 482:Generated_Source\PSoC4/cyfitter_cfg.c **** 
 483:Generated_Source\PSoC4/cyfitter_cfg.c **** 		/* UDB_PA_2 Starting address: CYDEV_UDB_PA2_BASE */
 484:Generated_Source\PSoC4/cyfitter_cfg.c **** 		CY_SET_REG32((void *)(CYDEV_UDB_PA2_BASE), 0x00990000u);
 544              		.loc 1 484 0
 545 01c0 404A     		ldr	r2, .L21+68
 546 01c2 1360     		str	r3, [r2]
 485:Generated_Source\PSoC4/cyfitter_cfg.c **** 
 486:Generated_Source\PSoC4/cyfitter_cfg.c **** 		/* UDB_PA_4 Starting address: CYDEV_UDB_PA4_BASE */
 487:Generated_Source\PSoC4/cyfitter_cfg.c **** 		CY_SET_REG32((void *)(CYDEV_UDB_PA4_BASE), 0x00990000u);
 547              		.loc 1 487 0
 548 01c4 404A     		ldr	r2, .L21+72
 549 01c6 1360     		str	r3, [r2]
 488:Generated_Source\PSoC4/cyfitter_cfg.c **** 
 489:Generated_Source\PSoC4/cyfitter_cfg.c **** 		/* UDB_PA_5 Starting address: CYDEV_UDB_PA5_BASE */
 490:Generated_Source\PSoC4/cyfitter_cfg.c **** 		CY_SET_REG32((void *)(CYDEV_UDB_PA5_BASE), 0x00990000u);
 550              		.loc 1 490 0
 551 01c8 404A     		ldr	r2, .L21+76
 552 01ca 1360     		str	r3, [r2]
 491:Generated_Source\PSoC4/cyfitter_cfg.c **** 		CY_SET_REG32((void *)(CYREG_UDB_PA5_CFG8), 0x00450000u);
 553              		.loc 1 491 0
 554 01cc 8A20     		movs	r0, #138
 555 01ce C003     		lsls	r0, r0, #15
 556 01d0 3F4A     		ldr	r2, .L21+80
 557 01d2 1060     		str	r0, [r2]
 492:Generated_Source\PSoC4/cyfitter_cfg.c **** 
 493:Generated_Source\PSoC4/cyfitter_cfg.c **** 		/* UDB_PA_7 Starting address: CYDEV_UDB_PA7_BASE */
 494:Generated_Source\PSoC4/cyfitter_cfg.c **** 		CY_SET_REG32((void *)(CYDEV_UDB_PA7_BASE), 0x00990000u);
 558              		.loc 1 494 0
 559 01d4 3F4A     		ldr	r2, .L21+84
 560 01d6 1360     		str	r3, [r2]
 495:Generated_Source\PSoC4/cyfitter_cfg.c **** 
 496:Generated_Source\PSoC4/cyfitter_cfg.c **** 		/* TCPWM_CNT3 Starting address: CYDEV_TCPWM_CNT3_TR_CTRL0 */
 497:Generated_Source\PSoC4/cyfitter_cfg.c **** 		CY_SET_REG32((void *)(CYREG_TCPWM_CNT3_TR_CTRL0), 0x000AAA10u);
 561              		.loc 1 497 0
 562 01d8 3F4A     		ldr	r2, .L21+88
 563 01da 404B     		ldr	r3, .L21+92
 564 01dc 1A60     		str	r2, [r3]
 498:Generated_Source\PSoC4/cyfitter_cfg.c **** 
ARM GAS  C:\Users\becca\AppData\Local\Temp\ccLgcTze.s 			page 20


 499:Generated_Source\PSoC4/cyfitter_cfg.c **** 		/* INT_SELECT Starting address: CYDEV_CPUSS_INT_SEL */
 500:Generated_Source\PSoC4/cyfitter_cfg.c **** 		CY_SET_REG32((void *)(CYREG_CPUSS_INT_SEL), 0x00000001u);
 565              		.loc 1 500 0
 566 01de 0122     		movs	r2, #1
 567 01e0 3F4B     		ldr	r3, .L21+96
 568 01e2 1A60     		str	r2, [r3]
 501:Generated_Source\PSoC4/cyfitter_cfg.c **** 
 502:Generated_Source\PSoC4/cyfitter_cfg.c **** 		/* Enable UDB array and digital routing */
 503:Generated_Source\PSoC4/cyfitter_cfg.c **** 		CY_SET_XTND_REG8((void *)CYREG_UDB_UDB_WAIT_CFG, (uint8)((CY_GET_XTND_REG8((void *)CYREG_UDB_UDB_
 569              		.loc 1 503 0
 570 01e4 3F48     		ldr	r0, .L21+100
 571 01e6 0378     		ldrb	r3, [r0]
 572 01e8 3B32     		adds	r2, r2, #59
 573 01ea 9343     		bics	r3, r2
 574 01ec 1422     		movs	r2, #20
 575 01ee 1343     		orrs	r3, r2
 576 01f0 DBB2     		uxtb	r3, r3
 577 01f2 0370     		strb	r3, [r0]
 504:Generated_Source\PSoC4/cyfitter_cfg.c **** 		CY_SET_XTND_REG8((void *)CYREG_UDB_UDB_BANK_CTL, (uint8)(CY_GET_XTND_REG8((void *)CYREG_UDB_UDB_B
 578              		.loc 1 504 0
 579 01f4 3C4A     		ldr	r2, .L21+104
 580 01f6 1078     		ldrb	r0, [r2]
 581 01f8 1623     		movs	r3, #22
 582 01fa 0343     		orrs	r3, r0
 583 01fc DBB2     		uxtb	r3, r3
 584 01fe 1370     		strb	r3, [r2]
 585              	.LBE3:
 505:Generated_Source\PSoC4/cyfitter_cfg.c **** 	}
 506:Generated_Source\PSoC4/cyfitter_cfg.c **** 
 507:Generated_Source\PSoC4/cyfitter_cfg.c **** 	/* Perform second pass device configuration. These items must be configured in specific order afte
 508:Generated_Source\PSoC4/cyfitter_cfg.c **** 	/* IOPINS0_0 Starting address: CYDEV_GPIO_PRT0_BASE */
 509:Generated_Source\PSoC4/cyfitter_cfg.c **** 	CY_SET_REG32((void *)(CYDEV_GPIO_PRT0_BASE), 0x0000002Fu);
 586              		.loc 1 509 0
 587 0200 2F23     		movs	r3, #47
 588 0202 3A4A     		ldr	r2, .L21+108
 589 0204 1360     		str	r3, [r2]
 510:Generated_Source\PSoC4/cyfitter_cfg.c **** 	CY_SET_REG32((void *)(CYREG_GPIO_PRT0_PC), 0x00271000u);
 590              		.loc 1 510 0
 591 0206 3A48     		ldr	r0, .L21+112
 592 0208 3A4A     		ldr	r2, .L21+116
 593 020a 1060     		str	r0, [r2]
 511:Generated_Source\PSoC4/cyfitter_cfg.c **** 	CY_SET_REG32((void *)(CYREG_GPIO_PRT0_PC2), 0x0000002Fu);
 594              		.loc 1 511 0
 595 020c 3A4A     		ldr	r2, .L21+120
 596 020e 1360     		str	r3, [r2]
 512:Generated_Source\PSoC4/cyfitter_cfg.c **** 
 513:Generated_Source\PSoC4/cyfitter_cfg.c **** 	/* IOPINS0_1 Starting address: CYDEV_GPIO_PRT1_BASE */
 514:Generated_Source\PSoC4/cyfitter_cfg.c **** 	CY_SET_REG32((void *)(CYDEV_GPIO_PRT1_BASE), 0x00000023u);
 597              		.loc 1 514 0
 598 0210 2322     		movs	r2, #35
 599 0212 3A4B     		ldr	r3, .L21+124
 600 0214 1A60     		str	r2, [r3]
 515:Generated_Source\PSoC4/cyfitter_cfg.c **** 	CY_SET_REG32((void *)(CYREG_GPIO_PRT1_PC), 0x00181C60u);
 601              		.loc 1 515 0
 602 0216 3A4A     		ldr	r2, .L21+128
 603 0218 3A4B     		ldr	r3, .L21+132
 604 021a 1A60     		str	r2, [r3]
ARM GAS  C:\Users\becca\AppData\Local\Temp\ccLgcTze.s 			page 21


 516:Generated_Source\PSoC4/cyfitter_cfg.c **** 	CY_SET_REG32((void *)(CYREG_GPIO_PRT1_INTR_CFG), 0x00000020u);
 605              		.loc 1 516 0
 606 021c 2022     		movs	r2, #32
 607 021e 3A4B     		ldr	r3, .L21+136
 608 0220 1A60     		str	r2, [r3]
 517:Generated_Source\PSoC4/cyfitter_cfg.c **** 	CY_SET_REG32((void *)(CYREG_GPIO_PRT1_PC2), 0x00000021u);
 609              		.loc 1 517 0
 610 0222 0132     		adds	r2, r2, #1
 611 0224 394B     		ldr	r3, .L21+140
 612 0226 1A60     		str	r2, [r3]
 518:Generated_Source\PSoC4/cyfitter_cfg.c **** 
 519:Generated_Source\PSoC4/cyfitter_cfg.c **** 	/* IOPINS0_2 Starting address: CYDEV_GPIO_PRT2_BASE */
 520:Generated_Source\PSoC4/cyfitter_cfg.c **** 	CY_SET_REG32((void *)(CYDEV_GPIO_PRT2_BASE), 0x0000005Eu);
 613              		.loc 1 520 0
 614 0228 3D32     		adds	r2, r2, #61
 615 022a 394B     		ldr	r3, .L21+144
 616 022c 1A60     		str	r2, [r3]
 521:Generated_Source\PSoC4/cyfitter_cfg.c **** 	CY_SET_REG32((void *)(CYREG_GPIO_PRT2_PC), 0x00186001u);
 617              		.loc 1 521 0
 618 022e 394A     		ldr	r2, .L21+148
 619 0230 394B     		ldr	r3, .L21+152
 620 0232 1A60     		str	r2, [r3]
 522:Generated_Source\PSoC4/cyfitter_cfg.c **** 	CY_SET_REG32((void *)(CYREG_GPIO_PRT2_INTR_CFG), 0x00000002u);
 621              		.loc 1 522 0
 622 0234 0223     		movs	r3, #2
 623 0236 394A     		ldr	r2, .L21+156
 624 0238 1360     		str	r3, [r2]
 523:Generated_Source\PSoC4/cyfitter_cfg.c **** 	CY_SET_REG32((void *)(CYREG_GPIO_PRT2_PC2), 0x0000000Eu);
 625              		.loc 1 523 0
 626 023a 394A     		ldr	r2, .L21+160
 627 023c 1160     		str	r1, [r2]
 524:Generated_Source\PSoC4/cyfitter_cfg.c **** 
 525:Generated_Source\PSoC4/cyfitter_cfg.c **** 	/* IOPINS0_3 Starting address: CYDEV_GPIO_PRT3_BASE */
 526:Generated_Source\PSoC4/cyfitter_cfg.c **** 	CY_SET_REG32((void *)(CYDEV_GPIO_PRT3_BASE), 0x00000011u);
 628              		.loc 1 526 0
 629 023e 1120     		movs	r0, #17
 630 0240 384A     		ldr	r2, .L21+164
 631 0242 1060     		str	r0, [r2]
 527:Generated_Source\PSoC4/cyfitter_cfg.c **** 	CY_SET_REG32((void *)(CYREG_GPIO_PRT3_PC), 0x00006D82u);
 632              		.loc 1 527 0
 633 0244 3848     		ldr	r0, .L21+168
 634 0246 394A     		ldr	r2, .L21+172
 635 0248 1060     		str	r0, [r2]
 528:Generated_Source\PSoC4/cyfitter_cfg.c **** 	CY_SET_REG32((void *)(CYREG_GPIO_PRT3_INTR_CFG), 0x00000002u);
 636              		.loc 1 528 0
 637 024a 394A     		ldr	r2, .L21+176
 638 024c 1360     		str	r3, [r2]
 529:Generated_Source\PSoC4/cyfitter_cfg.c **** 
 530:Generated_Source\PSoC4/cyfitter_cfg.c **** 	/* IOPINS0_4 Starting address: CYDEV_GPIO_PRT4_BASE */
 531:Generated_Source\PSoC4/cyfitter_cfg.c **** 	CY_SET_REG32((void *)(CYDEV_GPIO_PRT4_BASE), 0x00000007u);
 639              		.loc 1 531 0
 640 024e 0720     		movs	r0, #7
 641 0250 384A     		ldr	r2, .L21+180
 642 0252 1060     		str	r0, [r2]
 532:Generated_Source\PSoC4/cyfitter_cfg.c **** 	CY_SET_REG32((void *)(CYREG_GPIO_PRT4_PC), 0x00000004u);
 643              		.loc 1 532 0
 644 0254 0338     		subs	r0, r0, #3
ARM GAS  C:\Users\becca\AppData\Local\Temp\ccLgcTze.s 			page 22


 645 0256 384A     		ldr	r2, .L21+184
 646 0258 1060     		str	r0, [r2]
 533:Generated_Source\PSoC4/cyfitter_cfg.c **** 	CY_SET_REG32((void *)(CYREG_GPIO_PRT4_PC2), 0x00000006u);
 647              		.loc 1 533 0
 648 025a 0230     		adds	r0, r0, #2
 649 025c 374A     		ldr	r2, .L21+188
 650 025e 1060     		str	r0, [r2]
 534:Generated_Source\PSoC4/cyfitter_cfg.c **** 
 535:Generated_Source\PSoC4/cyfitter_cfg.c **** 	/* IOPINS0_5 Starting address: CYDEV_GPIO_PRT5_BASE */
 536:Generated_Source\PSoC4/cyfitter_cfg.c **** 	CY_SET_REG32((void *)(CYDEV_GPIO_PRT5_BASE), 0x0000000Eu);
 651              		.loc 1 536 0
 652 0260 374A     		ldr	r2, .L21+192
 653 0262 1160     		str	r1, [r2]
 537:Generated_Source\PSoC4/cyfitter_cfg.c **** 	CY_SET_REG32((void *)(CYREG_GPIO_PRT5_PC), 0x00000031u);
 654              		.loc 1 537 0
 655 0264 2B30     		adds	r0, r0, #43
 656 0266 374A     		ldr	r2, .L21+196
 657 0268 1060     		str	r0, [r2]
 538:Generated_Source\PSoC4/cyfitter_cfg.c **** 	CY_SET_REG32((void *)(CYREG_GPIO_PRT5_PC2), 0x0000000Eu);
 658              		.loc 1 538 0
 659 026a 374A     		ldr	r2, .L21+200
 660 026c 1160     		str	r1, [r2]
 539:Generated_Source\PSoC4/cyfitter_cfg.c **** 
 540:Generated_Source\PSoC4/cyfitter_cfg.c **** 	/* IOPINS0_7 Starting address: CYDEV_GPIO_PRT7_BASE */
 541:Generated_Source\PSoC4/cyfitter_cfg.c **** 	CY_SET_REG32((void *)(CYDEV_GPIO_PRT7_BASE), 0x00000002u);
 661              		.loc 1 541 0
 662 026e 374A     		ldr	r2, .L21+204
 663 0270 1360     		str	r3, [r2]
 542:Generated_Source\PSoC4/cyfitter_cfg.c **** 	CY_SET_REG32((void *)(CYREG_GPIO_PRT7_PC2), 0x00000002u);
 664              		.loc 1 542 0
 665 0272 374A     		ldr	r2, .L21+208
 666 0274 1360     		str	r3, [r2]
 543:Generated_Source\PSoC4/cyfitter_cfg.c **** 
 544:Generated_Source\PSoC4/cyfitter_cfg.c **** 
 545:Generated_Source\PSoC4/cyfitter_cfg.c **** 	/* Setup clocks based on selections from Clock DWR */
 546:Generated_Source\PSoC4/cyfitter_cfg.c **** 	ClockSetup();
 667              		.loc 1 546 0
 668 0276 FFF7C3FE 		bl	ClockSetup
 669              	.LVL30:
 547:Generated_Source\PSoC4/cyfitter_cfg.c **** 
 548:Generated_Source\PSoC4/cyfitter_cfg.c **** 	/* Perform basic analog initialization to defaults */
 549:Generated_Source\PSoC4/cyfitter_cfg.c **** 	AnalogSetDefault();
 670              		.loc 1 549 0
 671 027a FFF7FEFF 		bl	AnalogSetDefault
 672              	.LVL31:
 550:Generated_Source\PSoC4/cyfitter_cfg.c **** 
 551:Generated_Source\PSoC4/cyfitter_cfg.c **** }
 673              		.loc 1 551 0
 674              		@ sp needed
 675              	.LVL32:
 676 027e 10BD     		pop	{r4, pc}
 677              	.L22:
 678              		.align	2
 679              	.L21:
 680 0280 1C700F40 		.word	1074753564
 681 0284 00000000 		.word	.LANCHOR0
 682 0288 0000FFFF 		.word	-65536
ARM GAS  C:\Users\becca\AppData\Local\Temp\ccLgcTze.s 			page 23


 683 028c 00000240 		.word	1073872896
 684 0290 00010240 		.word	1073873152
 685 0294 00000808 		.word	134742016
 686 0298 00020240 		.word	1073873408
 687 029c 00EE0800 		.word	585216
 688 02a0 00030240 		.word	1073873664
 689 02a4 00040240 		.word	1073873920
 690 02a8 99760000 		.word	30361
 691 02ac 00050240 		.word	1073874176
 692 02b0 00500F40 		.word	1074745344
 693 02b4 08500F40 		.word	1074745352
 694 02b8 04009900 		.word	10027012
 695 02bc 10500F40 		.word	1074745360
 696 02c0 14500F40 		.word	1074745364
 697 02c4 20500F40 		.word	1074745376
 698 02c8 40500F40 		.word	1074745408
 699 02cc 50500F40 		.word	1074745424
 700 02d0 58500F40 		.word	1074745432
 701 02d4 70500F40 		.word	1074745456
 702 02d8 10AA0A00 		.word	698896
 703 02dc E0012040 		.word	1075839456
 704 02e0 20001040 		.word	1074790432
 705 02e4 01700F40 		.word	1074753537
 706 02e8 00700F40 		.word	1074753536
 707 02ec 00000440 		.word	1074003968
 708 02f0 00102700 		.word	2560000
 709 02f4 08000440 		.word	1074003976
 710 02f8 18000440 		.word	1074003992
 711 02fc 00010440 		.word	1074004224
 712 0300 601C1800 		.word	1580128
 713 0304 08010440 		.word	1074004232
 714 0308 0C010440 		.word	1074004236
 715 030c 18010440 		.word	1074004248
 716 0310 00020440 		.word	1074004480
 717 0314 01601800 		.word	1597441
 718 0318 08020440 		.word	1074004488
 719 031c 0C020440 		.word	1074004492
 720 0320 18020440 		.word	1074004504
 721 0324 00030440 		.word	1074004736
 722 0328 826D0000 		.word	28034
 723 032c 08030440 		.word	1074004744
 724 0330 0C030440 		.word	1074004748
 725 0334 00040440 		.word	1074004992
 726 0338 08040440 		.word	1074005000
 727 033c 18040440 		.word	1074005016
 728 0340 00050440 		.word	1074005248
 729 0344 08050440 		.word	1074005256
 730 0348 18050440 		.word	1074005272
 731 034c 00070440 		.word	1074005760
 732 0350 18070440 		.word	1074005784
 733              		.cfi_endproc
 734              	.LFE8:
 735              		.size	cyfitter_cfg, .-cyfitter_cfg
 736              		.section	.rodata
 737              		.align	2
 738              		.set	.LANCHOR0,. + 0
 739              		.type	cfg_memset_list.4977, %object
ARM GAS  C:\Users\becca\AppData\Local\Temp\ccLgcTze.s 			page 24


 740              		.size	cfg_memset_list.4977, 12
 741              	cfg_memset_list.4977:
 742 0000 00300F40 		.word	1074737152
 743 0004 0008     		.short	2048
 744 0006 00400F40 		.4byte	1074741248
 745 000a 0008     		.short	2048
 746              		.type	cy_cfg_data_table.4972, %object
 747              		.size	cy_cfg_data_table.4972, 102
 748              	cy_cfg_data_table.4972:
 749 000c E2       		.byte	-30
 750 000d 08       		.byte	8
 751 000e EC       		.byte	-20
 752 000f 20       		.byte	32
 753 0010 38       		.byte	56
 754 0011 A8       		.byte	-88
 755 0012 3E       		.byte	62
 756 0013 54       		.byte	84
 757 0014 58       		.byte	88
 758 0015 04       		.byte	4
 759 0016 5F       		.byte	95
 760 0017 01       		.byte	1
 761 0018 1C       		.byte	28
 762 0019 10       		.byte	16
 763 001a 1D       		.byte	29
 764 001b 90       		.byte	-112
 765 001c 1F       		.byte	31
 766 001d 80       		.byte	-128
 767 001e 87       		.byte	-121
 768 001f 80       		.byte	-128
 769 0020 89       		.byte	-119
 770 0021 80       		.byte	-128
 771 0022 8C       		.byte	-116
 772 0023 10       		.byte	16
 773 0024 8D       		.byte	-115
 774 0025 10       		.byte	16
 775 0026 53       		.byte	83
 776 0027 20       		.byte	32
 777 0028 6B       		.byte	107
 778 0029 08       		.byte	8
 779 002a 87       		.byte	-121
 780 002b 08       		.byte	8
 781 002c D4       		.byte	-44
 782 002d 20       		.byte	32
 783 002e DA       		.byte	-38
 784 002f 40       		.byte	64
 785 0030 E2       		.byte	-30
 786 0031 10       		.byte	16
 787 0032 08       		.byte	8
 788 0033 01       		.byte	1
 789 0034 A7       		.byte	-89
 790 0035 20       		.byte	32
 791 0036 C2       		.byte	-62
 792 0037 10       		.byte	16
 793 0038 A7       		.byte	-89
 794 0039 20       		.byte	32
 795 003a B0       		.byte	-80
 796 003b 01       		.byte	1
ARM GAS  C:\Users\becca\AppData\Local\Temp\ccLgcTze.s 			page 25


 797 003c 87       		.byte	-121
 798 003d 20       		.byte	32
 799 003e A7       		.byte	-89
 800 003f 20       		.byte	32
 801 0040 E6       		.byte	-26
 802 0041 10       		.byte	16
 803 0042 1F       		.byte	31
 804 0043 40       		.byte	64
 805 0044 87       		.byte	-121
 806 0045 40       		.byte	64
 807 0046 C6       		.byte	-58
 808 0047 01       		.byte	1
 809 0048 38       		.byte	56
 810 0049 02       		.byte	2
 811 004a 3C       		.byte	60
 812 004b 08       		.byte	8
 813 004c 44       		.byte	68
 814 004d 01       		.byte	1
 815 004e 50       		.byte	80
 816 004f 04       		.byte	4
 817 0050 CE       		.byte	-50
 818 0051 03       		.byte	3
 819 0052 D0       		.byte	-48
 820 0053 04       		.byte	4
 821 0054 D4       		.byte	-44
 822 0055 04       		.byte	4
 823 0056 38       		.byte	56
 824 0057 02       		.byte	2
 825 0058 3C       		.byte	60
 826 0059 08       		.byte	8
 827 005a 94       		.byte	-108
 828 005b 0A       		.byte	10
 829 005c A4       		.byte	-92
 830 005d 04       		.byte	4
 831 005e B0       		.byte	-80
 832 005f 01       		.byte	1
 833 0060 CE       		.byte	-50
 834 0061 03       		.byte	3
 835 0062 EC       		.byte	-20
 836 0063 04       		.byte	4
 837 0064 88       		.byte	-120
 838 0065 04       		.byte	4
 839 0066 8C       		.byte	-116
 840 0067 05       		.byte	5
 841 0068 94       		.byte	-108
 842 0069 0A       		.byte	10
 843 006a A4       		.byte	-92
 844 006b 04       		.byte	4
 845 006c E0       		.byte	-32
 846 006d 0E       		.byte	14
 847 006e 02       		.byte	2
 848 006f 01       		.byte	1
 849 0070 11       		.byte	17
 850 0071 01       		.byte	1
 851 0072 0000     		.space	2
 852              		.type	cy_cfg_addr_table.4971, %object
 853              		.size	cy_cfg_addr_table.4971, 52
ARM GAS  C:\Users\becca\AppData\Local\Temp\ccLgcTze.s 			page 26


 854              	cy_cfg_addr_table.4971:
 855 0074 01310F40 		.word	1074737409
 856 0078 01350F40 		.word	1074738433
 857 007c 04360F40 		.word	1074738692
 858 0080 07370F40 		.word	1074738951
 859 0084 06400F40 		.word	1074741254
 860 0088 03410F40 		.word	1074741507
 861 008c 02420F40 		.word	1074741762
 862 0090 03430F40 		.word	1074742019
 863 0094 03440F40 		.word	1074742275
 864 0098 07450F40 		.word	1074742535
 865 009c 07460F40 		.word	1074742791
 866 00a0 05470F40 		.word	1074743045
 867 00a4 02600F40 		.word	1074749442
 868              		.text
 869              	.Letext0:
 870              		.file 2 "c:\\program files (x86)\\cypress\\psoc creator\\4.4\\psoc creator\\import\\gnu\\arm\\5.4.
 871              		.file 3 "Generated_Source\\PSoC4\\cytypes.h"
 872              		.file 4 "Generated_Source\\PSoC4\\CyLib.h"