ARM GAS  C:\Users\becca\AppData\Local\Temp\ccVNgGBp.s 			page 1


   1              		.syntax unified
   2              		.cpu cortex-m0
   3              		.fpu softvfp
   4              		.eabi_attribute 20, 1
   5              		.eabi_attribute 21, 1
   6              		.eabi_attribute 23, 3
   7              		.eabi_attribute 24, 1
   8              		.eabi_attribute 25, 1
   9              		.eabi_attribute 26, 1
  10              		.eabi_attribute 30, 1
  11              		.eabi_attribute 34, 0
  12              		.eabi_attribute 18, 4
  13              		.thumb
  14              		.syntax unified
  15              		.file	"main.c"
  16              		.text
  17              	.Ltext0:
  18              		.cfi_sections	.debug_frame
  19              		.global	__aeabi_ui2f
  20              		.global	__aeabi_fdiv
  21              		.global	__aeabi_fmul
  22              		.section	.text.MG_ReadVoltage,"ax",%progbits
  23              		.align	2
  24              		.global	MG_ReadVoltage
  25              		.code	16
  26              		.thumb_func
  27              		.type	MG_ReadVoltage, %function
  28              	MG_ReadVoltage:
  29              	.LFB36:
  30              		.file 1 "main.c"
   1:main.c        **** //based on arduino code by Tiequan Shao: tiequan.shao@sandboxelectronics.com
   2:main.c        ****     //Peng Wei: peng.wei@sandboxelectronics.com
   3:main.c        **** 
   4:main.c        **** 
   5:main.c        **** #include <project.h>
   6:main.c        **** #include <math.h>
   7:main.c        **** #include <stdio.h>
   8:main.c        **** 
   9:main.c        **** /* Hardware & calibration macros */
  10:main.c        **** #define DC_GAIN                   (8.5f)
  11:main.c        **** #define ZERO_POINT_VOLTAGE        (3.328f/DC_GAIN) 
  12:main.c        **** 
  13:main.c        **** #define REACTION_VOLTAGE          (0.030f)          
  14:main.c        **** #define ADC_COUNTS                (4095.0f)  /* 12-bit */
  15:main.c        **** #define VREF                      (5.0f)     /* volts */
  16:main.c        **** 
  17:main.c        **** /* CO2 curve: { x = log10(ppm), y = sensor voltage @ that ppm, slope } */
  18:main.c        **** static float CO2Curve[3] = {
  19:main.c        ****     2.602f, 
  20:main.c        ****     ZERO_POINT_VOLTAGE, 
  21:main.c        ****     (REACTION_VOLTAGE / (2.602f - 3.0f))
  22:main.c        **** };
  23:main.c        **** 
  24:main.c        **** float MG_ReadVoltage(void);
  25:main.c        **** int   MG_GetPercentage(float volts);
  26:main.c        **** 
  27:main.c        **** int main(void)
ARM GAS  C:\Users\becca\AppData\Local\Temp\ccVNgGBp.s 			page 2


  28:main.c        **** {
  29:main.c        ****     char buf[64];
  30:main.c        ****     float volts;
  31:main.c        ****     int   ppm;
  32:main.c        ****     
  33:main.c        ****     CyGlobalIntEnable;          /* Enable global interrupts */
  34:main.c        ****     
  35:main.c        ****     UART_Start();             /* Initialize UART at 9600bps */ 
  36:main.c        ****     ADC_SAR_Start();          /* Initialize SAR ADC */ 
  37:main.c        ****     
  38:main.c        ****     UART_PutString("MG-811 Demonstration\r\n");
  39:main.c        ****     
  40:main.c        ****     for (;;)
  41:main.c        ****     {
  42:main.c        ****         /* 1) Read sensor voltage */
  43:main.c        ****         volts = MG_ReadVoltage();
  44:main.c        ****         
  45:main.c        ****         /* 2) Compute CO2 concentration */
  46:main.c        ****         ppm = MG_GetPercentage(volts);
  47:main.c        ****         
  48:main.c        ****         /* 3) Print readings */
  49:main.c        ****         sprintf(buf, "SEN0159: %.3f V    CO2: %s%d ppm\r\n",
  50:main.c        ****                 volts,
  51:main.c        ****                 (ppm < 0) ? "<" : "",
  52:main.c        ****                 (ppm < 0) ? 400 : ppm);
  53:main.c        ****         UART_PutString(buf);
  54:main.c        ****         
  55:main.c        ****         /* 4) Read BOOL_PIN and print its state */
  56:main.c        ****         if (BOOL_PIN_Read() == 1)
  57:main.c        ****         {
  58:main.c        ****             UART_PutString("=====BOOL is HIGH======\r\n");
  59:main.c        ****         }
  60:main.c        ****         else
  61:main.c        ****         {
  62:main.c        ****             UART_1_PutString("=====BOOL is LOW=======\r\n");
  63:main.c        ****         }
  64:main.c        ****         
  65:main.c        ****         CyDelay(500);
  66:main.c        ****     }
  67:main.c        **** }
  68:main.c        **** 
  69:main.c        **** 
  70:main.c        **** /**
  71:main.c        ****  * @brief  Take multiple ADC readings, average, and convert to voltage.
  72:main.c        ****  * @return Sensor voltage in volts.
  73:main.c        ****  */
  74:main.c        **** float MG_ReadVoltage(void)
  75:main.c        **** {
  31              		.loc 1 75 0
  32              		.cfi_startproc
  33              		@ args = 0, pretend = 0, frame = 0
  34              		@ frame_needed = 0, uses_anonymous_args = 0
  35 0000 70B5     		push	{r4, r5, r6, lr}
  36              		.cfi_def_cfa_offset 16
  37              		.cfi_offset 4, -16
  38              		.cfi_offset 5, -12
  39              		.cfi_offset 6, -8
ARM GAS  C:\Users\becca\AppData\Local\Temp\ccVNgGBp.s 			page 3


  40              		.cfi_offset 14, -4
  41              	.LVL0:
  76:main.c        ****     uint32_t sum = 0;
  77:main.c        ****     uint16_t sample;
  78:main.c        ****     const int READ_SAMPLE_TIMES     = 5;
  79:main.c        ****     const int READ_SAMPLE_INTERVAL  = 50;  /* ms */
  80:main.c        ****     int i;
  81:main.c        ****     
  82:main.c        ****     for (i = 0; i < READ_SAMPLE_TIMES; i++)
  42              		.loc 1 82 0
  43 0002 0024     		movs	r4, #0
  76:main.c        ****     uint32_t sum = 0;
  44              		.loc 1 76 0
  45 0004 0025     		movs	r5, #0
  46              		.loc 1 82 0
  47 0006 0DE0     		b	.L2
  48              	.LVL1:
  49              	.L3:
  50              	.LBB2:
  83:main.c        ****     {
  84:main.c        ****         ADC_StartConvert();
  51              		.loc 1 84 0 discriminator 3
  52 0008 FFF7FEFF 		bl	ADC_StartConvert
  53              	.LVL2:
  85:main.c        ****         ADC_IsEndConversion(ADC_WAIT_FOR_RESULT);
  54              		.loc 1 85 0 discriminator 3
  55 000c 0220     		movs	r0, #2
  56 000e FFF7FEFF 		bl	ADC_IsEndConversion
  57              	.LVL3:
  86:main.c        ****         sample = ADC_SAR_GetResult16();
  58              		.loc 1 86 0 discriminator 3
  59 0012 FFF7FEFF 		bl	ADC_SAR_GetResult16
  60              	.LVL4:
  87:main.c        ****         sum   += sample;
  61              		.loc 1 87 0 discriminator 3
  62 0016 0004     		lsls	r0, r0, #16
  63              	.LVL5:
  64 0018 000C     		lsrs	r0, r0, #16
  65 001a 2D18     		adds	r5, r5, r0
  66              	.LVL6:
  88:main.c        ****         CyDelay(READ_SAMPLE_INTERVAL);
  67              		.loc 1 88 0 discriminator 3
  68 001c 3220     		movs	r0, #50
  69 001e FFF7FEFF 		bl	CyDelay
  70              	.LVL7:
  71              	.LBE2:
  82:main.c        ****     {
  72              		.loc 1 82 0 discriminator 3
  73 0022 0134     		adds	r4, r4, #1
  74              	.LVL8:
  75              	.L2:
  82:main.c        ****     {
  76              		.loc 1 82 0 is_stmt 0 discriminator 1
  77 0024 042C     		cmp	r4, #4
  78 0026 EFDD     		ble	.L3
  89:main.c        ****     }
  90:main.c        ****     
ARM GAS  C:\Users\becca\AppData\Local\Temp\ccVNgGBp.s 			page 4


  91:main.c        ****     /* Average and scale to voltage */
  92:main.c        ****     float avgCounts = (float)sum / READ_SAMPLE_TIMES;
  79              		.loc 1 92 0 is_stmt 1
  80 0028 2800     		movs	r0, r5
  81 002a FFF7FEFF 		bl	__aeabi_ui2f
  82              	.LVL9:
  83 002e 0549     		ldr	r1, .L4
  84 0030 FFF7FEFF 		bl	__aeabi_fdiv
  85              	.LVL10:
  93:main.c        ****     return (avgCounts * VREF / ADC_COUNTS);
  86              		.loc 1 93 0
  87 0034 0349     		ldr	r1, .L4
  88 0036 FFF7FEFF 		bl	__aeabi_fmul
  89              	.LVL11:
  90 003a 0349     		ldr	r1, .L4+4
  91 003c FFF7FEFF 		bl	__aeabi_fdiv
  92              	.LVL12:
  94:main.c        **** }
  93              		.loc 1 94 0
  94              		@ sp needed
  95              	.LVL13:
  96              	.LVL14:
  97 0040 70BD     		pop	{r4, r5, r6, pc}
  98              	.L5:
  99 0042 C046     		.align	2
 100              	.L4:
 101 0044 0000A040 		.word	1084227584
 102 0048 00F07F45 		.word	1166012416
 103              		.cfi_endproc
 104              	.LFE36:
 105              		.size	MG_ReadVoltage, .-MG_ReadVoltage
 106              		.global	__aeabi_fcmpge
 107              		.global	__aeabi_fsub
 108              		.global	__aeabi_fadd
 109              		.global	__aeabi_f2iz
 110              		.section	.text.MG_GetPercentage,"ax",%progbits
 111              		.align	2
 112              		.global	MG_GetPercentage
 113              		.code	16
 114              		.thumb_func
 115              		.type	MG_GetPercentage, %function
 116              	MG_GetPercentage:
 117              	.LFB37:
  95:main.c        **** 
  96:main.c        **** 
  97:main.c        **** /**
  98:main.c        ****  * @brief  Convert voltage reading to CO2 ppm using log-linear approximation.
  99:main.c        ****  * @param  volts  Sensor voltage (V).
 100:main.c        ****  * @return CO2 in ppm, or -1 if below zero point (i.e. <400 ppm).
 101:main.c        ****  */
 102:main.c        **** int MG_GetPercentage(float volts)
 103:main.c        **** {
 118              		.loc 1 103 0
 119              		.cfi_startproc
 120              		@ args = 0, pretend = 0, frame = 0
 121              		@ frame_needed = 0, uses_anonymous_args = 0
 122              	.LVL15:
ARM GAS  C:\Users\becca\AppData\Local\Temp\ccVNgGBp.s 			page 5


 123 0000 10B5     		push	{r4, lr}
 124              		.cfi_def_cfa_offset 8
 125              		.cfi_offset 4, -8
 126              		.cfi_offset 14, -4
 104:main.c        ****     /* If sensor voltage (after gain) is above zero point → low CO2 */
 105:main.c        ****     if ((volts / DC_GAIN) >= ZERO_POINT_VOLTAGE)
 127              		.loc 1 105 0
 128 0002 0E49     		ldr	r1, .L9
 129 0004 FFF7FEFF 		bl	__aeabi_fdiv
 130              	.LVL16:
 131 0008 041C     		adds	r4, r0, #0
 132 000a 0D49     		ldr	r1, .L9+4
 133 000c FFF7FEFF 		bl	__aeabi_fcmpge
 134              	.LVL17:
 135 0010 0028     		cmp	r0, #0
 136 0012 10D1     		bne	.L8
 106:main.c        ****         return -1;
 107:main.c        ****     
 108:main.c        ****     /* Logarithmic interpolation */
 109:main.c        ****     float x = ((volts / DC_GAIN) - CO2Curve[1]) / CO2Curve[2] + CO2Curve[0];
 137              		.loc 1 109 0
 138 0014 0A49     		ldr	r1, .L9+4
 139 0016 201C     		adds	r0, r4, #0
 140 0018 FFF7FEFF 		bl	__aeabi_fsub
 141              	.LVL18:
 142 001c 0949     		ldr	r1, .L9+8
 143 001e FFF7FEFF 		bl	__aeabi_fdiv
 144              	.LVL19:
 145 0022 0949     		ldr	r1, .L9+12
 146 0024 FFF7FEFF 		bl	__aeabi_fadd
 147              	.LVL20:
 148 0028 011C     		adds	r1, r0, #0
 149              	.LVL21:
 110:main.c        ****     return (int)powf(10.0f, x);
 150              		.loc 1 110 0
 151 002a 0848     		ldr	r0, .L9+16
 152              	.LVL22:
 153 002c FFF7FEFF 		bl	powf
 154              	.LVL23:
 155 0030 FFF7FEFF 		bl	__aeabi_f2iz
 156              	.LVL24:
 157 0034 01E0     		b	.L7
 158              	.L8:
 106:main.c        ****         return -1;
 159              		.loc 1 106 0
 160 0036 0120     		movs	r0, #1
 161 0038 4042     		rsbs	r0, r0, #0
 162              	.L7:
 111:main.c        **** }
 163              		.loc 1 111 0
 164              		@ sp needed
 165 003a 10BD     		pop	{r4, pc}
 166              	.L10:
 167              		.align	2
 168              	.L9:
 169 003c 00000841 		.word	1091043328
 170 0040 8B76C83E 		.word	1053324939
ARM GAS  C:\Users\becca\AppData\Local\Temp\ccVNgGBp.s 			page 6


 171 0044 325F9ABD 		.word	-1113956558
 172 0048 2B872640 		.word	1076266795
 173 004c 00002041 		.word	1092616192
 174              		.cfi_endproc
 175              	.LFE37:
 176              		.size	MG_GetPercentage, .-MG_GetPercentage
 177              		.global	__aeabi_f2d
 178              		.section	.text.main,"ax",%progbits
 179              		.align	2
 180              		.global	main
 181              		.code	16
 182              		.thumb_func
 183              		.type	main, %function
 184              	main:
 185              	.LFB35:
  28:main.c        ****     char buf[64];
 186              		.loc 1 28 0
 187              		.cfi_startproc
 188              		@ args = 0, pretend = 0, frame = 64
 189              		@ frame_needed = 0, uses_anonymous_args = 0
 190 0000 30B5     		push	{r4, r5, lr}
 191              		.cfi_def_cfa_offset 12
 192              		.cfi_offset 4, -12
 193              		.cfi_offset 5, -8
 194              		.cfi_offset 14, -4
 195 0002 93B0     		sub	sp, sp, #76
 196              		.cfi_def_cfa_offset 88
  33:main.c        ****     
 197              		.loc 1 33 0
 198              		.syntax divided
 199              	@ 33 "main.c" 1
 200 0004 62B6     		CPSIE   i
 201              	@ 0 "" 2
  35:main.c        ****     ADC_SAR_Start();          /* Initialize SAR ADC */ 
 202              		.loc 1 35 0
 203              		.thumb
 204              		.syntax unified
 205 0006 FFF7FEFF 		bl	UART_Start
 206              	.LVL25:
  36:main.c        ****     
 207              		.loc 1 36 0
 208 000a FFF7FEFF 		bl	ADC_SAR_Start
 209              	.LVL26:
  38:main.c        ****     
 210              		.loc 1 38 0
 211 000e 1848     		ldr	r0, .L19
 212 0010 FFF7FEFF 		bl	UART_PutString
 213              	.LVL27:
 214              	.L16:
  43:main.c        ****         
 215              		.loc 1 43 0
 216 0014 FFF7FEFF 		bl	MG_ReadVoltage
 217              	.LVL28:
 218 0018 051C     		adds	r5, r0, #0
 219              	.LVL29:
  46:main.c        ****         
 220              		.loc 1 46 0
ARM GAS  C:\Users\becca\AppData\Local\Temp\ccVNgGBp.s 			page 7


 221 001a FFF7FEFF 		bl	MG_GetPercentage
 222              	.LVL30:
 223 001e 0400     		movs	r4, r0
 224              	.LVL31:
  49:main.c        ****                 volts,
 225              		.loc 1 49 0
 226 0020 281C     		adds	r0, r5, #0
 227              	.LVL32:
 228 0022 FFF7FEFF 		bl	__aeabi_f2d
 229              	.LVL33:
 230 0026 0200     		movs	r2, r0
 231 0028 0B00     		movs	r3, r1
 232 002a 002C     		cmp	r4, #0
 233 002c 01DA     		bge	.L17
 234 002e 1149     		ldr	r1, .L19+4
 235 0030 00E0     		b	.L12
 236              	.L17:
 237 0032 1149     		ldr	r1, .L19+8
 238              	.L12:
  49:main.c        ****                 volts,
 239              		.loc 1 49 0 is_stmt 0 discriminator 4
 240 0034 002C     		cmp	r4, #0
 241 0036 01DA     		bge	.L13
  49:main.c        ****                 volts,
 242              		.loc 1 49 0
 243 0038 C824     		movs	r4, #200
 244              	.LVL34:
 245 003a 6400     		lsls	r4, r4, #1
 246              	.L13:
  49:main.c        ****                 volts,
 247              		.loc 1 49 0 discriminator 8
 248 003c 0194     		str	r4, [sp, #4]
 249 003e 0091     		str	r1, [sp]
 250 0040 0E49     		ldr	r1, .L19+12
 251 0042 02A8     		add	r0, sp, #8
 252 0044 FFF7FEFF 		bl	sprintf
 253              	.LVL35:
  53:main.c        ****         
 254              		.loc 1 53 0 is_stmt 1 discriminator 8
 255 0048 02A8     		add	r0, sp, #8
 256 004a FFF7FEFF 		bl	UART_PutString
 257              	.LVL36:
 258              	.LBB3:
  56:main.c        ****         {
 259              		.loc 1 56 0 discriminator 8
 260 004e FFF7FEFF 		bl	BOOL_PIN_Read
 261              	.LVL37:
 262 0052 0128     		cmp	r0, #1
 263 0054 03D1     		bne	.L14
  58:main.c        ****         }
 264              		.loc 1 58 0
 265 0056 0A48     		ldr	r0, .L19+16
 266 0058 FFF7FEFF 		bl	UART_PutString
 267              	.LVL38:
 268 005c 02E0     		b	.L15
 269              	.L14:
 270              	.LBB4:
ARM GAS  C:\Users\becca\AppData\Local\Temp\ccVNgGBp.s 			page 8


  62:main.c        ****         }
 271              		.loc 1 62 0
 272 005e 0948     		ldr	r0, .L19+20
 273 0060 FFF7FEFF 		bl	UART_1_PutString
 274              	.LVL39:
 275              	.L15:
 276              	.LBE4:
 277              	.LBE3:
  65:main.c        ****     }
 278              		.loc 1 65 0
 279 0064 FA20     		movs	r0, #250
 280 0066 4000     		lsls	r0, r0, #1
 281 0068 FFF7FEFF 		bl	CyDelay
 282              	.LVL40:
  66:main.c        **** }
 283              		.loc 1 66 0
 284 006c D2E7     		b	.L16
 285              	.L20:
 286 006e C046     		.align	2
 287              	.L19:
 288 0070 08000000 		.word	.LC4
 289 0074 00000000 		.word	.LC0
 290 0078 04000000 		.word	.LC2
 291 007c 20000000 		.word	.LC6
 292 0080 44000000 		.word	.LC8
 293 0084 60000000 		.word	.LC10
 294              		.cfi_endproc
 295              	.LFE35:
 296              		.size	main, .-main
 297              		.section	.rodata.str1.4,"aMS",%progbits,1
 298              		.align	2
 299              	.LC0:
 300 0000 3C00     		.ascii	"<\000"
 301 0002 0000     		.space	2
 302              	.LC2:
 303 0004 00       		.ascii	"\000"
 304 0005 000000   		.space	3
 305              	.LC4:
 306 0008 4D472D38 		.ascii	"MG-811 Demonstration\015\012\000"
 306      31312044 
 306      656D6F6E 
 306      73747261 
 306      74696F6E 
 307 001f 00       		.space	1
 308              	.LC6:
 309 0020 53454E30 		.ascii	"SEN0159: %.3f V    CO2: %s%d ppm\015\012\000"
 309      3135393A 
 309      20252E33 
 309      66205620 
 309      20202043 
 310 0043 00       		.space	1
 311              	.LC8:
 312 0044 3D3D3D3D 		.ascii	"=====BOOL is HIGH======\015\012\000"
 312      3D424F4F 
 312      4C206973 
 312      20484947 
 312      483D3D3D 
ARM GAS  C:\Users\becca\AppData\Local\Temp\ccVNgGBp.s 			page 9


 313 005e 0000     		.space	2
 314              	.LC10:
 315 0060 3D3D3D3D 		.ascii	"=====BOOL is LOW=======\015\012\000"
 315      3D424F4F 
 315      4C206973 
 315      204C4F57 
 315      3D3D3D3D 
 316              		.text
 317              	.Letext0:
 318              		.file 2 "c:\\program files (x86)\\cypress\\psoc creator\\4.4\\psoc creator\\import\\gnu\\arm\\5.4.
 319              		.file 3 "c:\\program files (x86)\\cypress\\psoc creator\\4.4\\psoc creator\\import\\gnu\\arm\\5.4.
 320              		.file 4 "Generated_Source\\PSoC4/ADC.h"
 321              		.file 5 "Generated_Source\\PSoC4/CyLib.h"
 322              		.file 6 "c:\\program files (x86)\\cypress\\psoc creator\\4.4\\psoc creator\\import\\gnu\\arm\\5.4.
 323              		.file 7 "Generated_Source\\PSoC4/UART.h"
 324              		.file 8 "c:\\program files (x86)\\cypress\\psoc creator\\4.4\\psoc creator\\import\\gnu\\arm\\5.4.