ARM GAS  C:\Users\becca\AppData\Local\Temp\ccJeiGmP.s 			page 1


   1              		.syntax unified
   2              		.cpu cortex-m0
   3              		.fpu softvfp
   4              		.eabi_attribute 20, 1
   5              		.eabi_attribute 21, 1
   6              		.eabi_attribute 23, 3
   7              		.eabi_attribute 24, 1
   8              		.eabi_attribute 25, 1
   9              		.eabi_attribute 26, 1
  10              		.eabi_attribute 30, 1
  11              		.eabi_attribute 34, 0
  12              		.eabi_attribute 18, 4
  13              		.thumb
  14              		.syntax unified
  15              		.file	"cyfitter_cfg.c"
  16              		.text
  17              	.Ltext0:
  18              		.cfi_sections	.debug_frame
  19              		.section	.text.cfg_write_bytes32,"ax",%progbits
  20              		.align	2
  21              		.code	16
  22              		.thumb_func
  23              		.type	cfg_write_bytes32, %function
  24              	cfg_write_bytes32:
  25              	.LFB4:
  26              		.file 1 "Generated_Source\\PSoC4\\cyfitter_cfg.c"
   1:Generated_Source\PSoC4/cyfitter_cfg.c **** 
   2:Generated_Source\PSoC4/cyfitter_cfg.c **** /*******************************************************************************
   3:Generated_Source\PSoC4/cyfitter_cfg.c **** * File Name: cyfitter_cfg.c
   4:Generated_Source\PSoC4/cyfitter_cfg.c **** * 
   5:Generated_Source\PSoC4/cyfitter_cfg.c **** * PSoC Creator  4.4
   6:Generated_Source\PSoC4/cyfitter_cfg.c **** *
   7:Generated_Source\PSoC4/cyfitter_cfg.c **** * Description:
   8:Generated_Source\PSoC4/cyfitter_cfg.c **** * This file contains device initialization code.
   9:Generated_Source\PSoC4/cyfitter_cfg.c **** * Except for the user defined sections in CyClockStartupError(), this file should not be modified.
  10:Generated_Source\PSoC4/cyfitter_cfg.c **** * This file is automatically generated by PSoC Creator.
  11:Generated_Source\PSoC4/cyfitter_cfg.c **** *
  12:Generated_Source\PSoC4/cyfitter_cfg.c **** ********************************************************************************
  13:Generated_Source\PSoC4/cyfitter_cfg.c **** * Copyright (c) 2007-2020 Cypress Semiconductor.  All rights reserved.
  14:Generated_Source\PSoC4/cyfitter_cfg.c **** * You may use this file only in accordance with the license, terms, conditions, 
  15:Generated_Source\PSoC4/cyfitter_cfg.c **** * disclaimers, and limitations in the end user license agreement accompanying 
  16:Generated_Source\PSoC4/cyfitter_cfg.c **** * the software package with which this file was provided.
  17:Generated_Source\PSoC4/cyfitter_cfg.c **** ********************************************************************************/
  18:Generated_Source\PSoC4/cyfitter_cfg.c **** 
  19:Generated_Source\PSoC4/cyfitter_cfg.c **** #include <string.h>
  20:Generated_Source\PSoC4/cyfitter_cfg.c **** #include "cytypes.h"
  21:Generated_Source\PSoC4/cyfitter_cfg.c **** #include "cydevice_trm.h"
  22:Generated_Source\PSoC4/cyfitter_cfg.c **** #include "cyfitter.h"
  23:Generated_Source\PSoC4/cyfitter_cfg.c **** #include "CyLib.h"
  24:Generated_Source\PSoC4/cyfitter_cfg.c **** #include "CyLFClk.h"
  25:Generated_Source\PSoC4/cyfitter_cfg.c **** #include "cyfitter_cfg.h"
  26:Generated_Source\PSoC4/cyfitter_cfg.c **** #include "cyapicallbacks.h"
  27:Generated_Source\PSoC4/cyfitter_cfg.c **** 
  28:Generated_Source\PSoC4/cyfitter_cfg.c **** 
  29:Generated_Source\PSoC4/cyfitter_cfg.c **** #if defined(__GNUC__) || defined(__ARMCC_VERSION)
  30:Generated_Source\PSoC4/cyfitter_cfg.c ****     #define CYPACKED 
  31:Generated_Source\PSoC4/cyfitter_cfg.c ****     #define CYPACKED_ATTR __attribute__ ((packed))
ARM GAS  C:\Users\becca\AppData\Local\Temp\ccJeiGmP.s 			page 2


  32:Generated_Source\PSoC4/cyfitter_cfg.c ****     #define CYALIGNED __attribute__ ((aligned))
  33:Generated_Source\PSoC4/cyfitter_cfg.c ****     #define CY_CFG_UNUSED __attribute__ ((unused))
  34:Generated_Source\PSoC4/cyfitter_cfg.c ****     #ifndef CY_CFG_SECTION
  35:Generated_Source\PSoC4/cyfitter_cfg.c ****         #define CY_CFG_SECTION __attribute__ ((section(".psocinit")))
  36:Generated_Source\PSoC4/cyfitter_cfg.c ****     #endif
  37:Generated_Source\PSoC4/cyfitter_cfg.c ****     
  38:Generated_Source\PSoC4/cyfitter_cfg.c ****     #if defined(__ARMCC_VERSION)
  39:Generated_Source\PSoC4/cyfitter_cfg.c ****         #define CY_CFG_MEMORY_BARRIER() __memory_changed()
  40:Generated_Source\PSoC4/cyfitter_cfg.c ****     #else
  41:Generated_Source\PSoC4/cyfitter_cfg.c ****         #define CY_CFG_MEMORY_BARRIER() __sync_synchronize()
  42:Generated_Source\PSoC4/cyfitter_cfg.c ****     #endif
  43:Generated_Source\PSoC4/cyfitter_cfg.c ****     
  44:Generated_Source\PSoC4/cyfitter_cfg.c **** #elif defined(__ICCARM__)
  45:Generated_Source\PSoC4/cyfitter_cfg.c ****     #include <intrinsics.h>
  46:Generated_Source\PSoC4/cyfitter_cfg.c **** 
  47:Generated_Source\PSoC4/cyfitter_cfg.c ****     #define CYPACKED __packed
  48:Generated_Source\PSoC4/cyfitter_cfg.c ****     #define CYPACKED_ATTR 
  49:Generated_Source\PSoC4/cyfitter_cfg.c ****     #define CYALIGNED _Pragma("data_alignment=4")
  50:Generated_Source\PSoC4/cyfitter_cfg.c ****     #define CY_CFG_UNUSED _Pragma("diag_suppress=Pe177")
  51:Generated_Source\PSoC4/cyfitter_cfg.c ****     #define CY_CFG_SECTION _Pragma("location=\".psocinit\"")
  52:Generated_Source\PSoC4/cyfitter_cfg.c ****     
  53:Generated_Source\PSoC4/cyfitter_cfg.c ****     #define CY_CFG_MEMORY_BARRIER() __DMB()
  54:Generated_Source\PSoC4/cyfitter_cfg.c ****     
  55:Generated_Source\PSoC4/cyfitter_cfg.c **** #else
  56:Generated_Source\PSoC4/cyfitter_cfg.c ****     #error Unsupported toolchain
  57:Generated_Source\PSoC4/cyfitter_cfg.c **** #endif
  58:Generated_Source\PSoC4/cyfitter_cfg.c **** 
  59:Generated_Source\PSoC4/cyfitter_cfg.c **** #ifndef CYCODE
  60:Generated_Source\PSoC4/cyfitter_cfg.c ****     #define CYCODE
  61:Generated_Source\PSoC4/cyfitter_cfg.c **** #endif
  62:Generated_Source\PSoC4/cyfitter_cfg.c **** #ifndef CYDATA
  63:Generated_Source\PSoC4/cyfitter_cfg.c ****     #define CYDATA
  64:Generated_Source\PSoC4/cyfitter_cfg.c **** #endif
  65:Generated_Source\PSoC4/cyfitter_cfg.c **** #ifndef CYFAR
  66:Generated_Source\PSoC4/cyfitter_cfg.c ****     #define CYFAR
  67:Generated_Source\PSoC4/cyfitter_cfg.c **** #endif
  68:Generated_Source\PSoC4/cyfitter_cfg.c **** #ifndef CYXDATA
  69:Generated_Source\PSoC4/cyfitter_cfg.c ****     #define CYXDATA
  70:Generated_Source\PSoC4/cyfitter_cfg.c **** #endif
  71:Generated_Source\PSoC4/cyfitter_cfg.c **** 
  72:Generated_Source\PSoC4/cyfitter_cfg.c **** 
  73:Generated_Source\PSoC4/cyfitter_cfg.c **** CY_CFG_UNUSED
  74:Generated_Source\PSoC4/cyfitter_cfg.c **** static void CYMEMZERO(void *s, size_t n);
  75:Generated_Source\PSoC4/cyfitter_cfg.c **** CY_CFG_UNUSED
  76:Generated_Source\PSoC4/cyfitter_cfg.c **** static void CYMEMZERO(void *s, size_t n)
  77:Generated_Source\PSoC4/cyfitter_cfg.c **** {
  78:Generated_Source\PSoC4/cyfitter_cfg.c **** 	(void)memset(s, 0, n);
  79:Generated_Source\PSoC4/cyfitter_cfg.c **** }
  80:Generated_Source\PSoC4/cyfitter_cfg.c **** CY_CFG_UNUSED
  81:Generated_Source\PSoC4/cyfitter_cfg.c **** static void CYCONFIGCPY(void *dest, const void *src, size_t n);
  82:Generated_Source\PSoC4/cyfitter_cfg.c **** CY_CFG_UNUSED
  83:Generated_Source\PSoC4/cyfitter_cfg.c **** static void CYCONFIGCPY(void *dest, const void *src, size_t n)
  84:Generated_Source\PSoC4/cyfitter_cfg.c **** {
  85:Generated_Source\PSoC4/cyfitter_cfg.c **** 	(void)memcpy(dest, src, n);
  86:Generated_Source\PSoC4/cyfitter_cfg.c **** }
  87:Generated_Source\PSoC4/cyfitter_cfg.c **** CY_CFG_UNUSED
  88:Generated_Source\PSoC4/cyfitter_cfg.c **** static void CYCONFIGCPYCODE(void *dest, const void *src, size_t n);
ARM GAS  C:\Users\becca\AppData\Local\Temp\ccJeiGmP.s 			page 3


  89:Generated_Source\PSoC4/cyfitter_cfg.c **** CY_CFG_UNUSED
  90:Generated_Source\PSoC4/cyfitter_cfg.c **** static void CYCONFIGCPYCODE(void *dest, const void *src, size_t n)
  91:Generated_Source\PSoC4/cyfitter_cfg.c **** {
  92:Generated_Source\PSoC4/cyfitter_cfg.c **** 	(void)memcpy(dest, src, n);
  93:Generated_Source\PSoC4/cyfitter_cfg.c **** }
  94:Generated_Source\PSoC4/cyfitter_cfg.c **** 
  95:Generated_Source\PSoC4/cyfitter_cfg.c **** 
  96:Generated_Source\PSoC4/cyfitter_cfg.c **** 
  97:Generated_Source\PSoC4/cyfitter_cfg.c **** 
  98:Generated_Source\PSoC4/cyfitter_cfg.c **** /* Clock startup error codes                                                   */
  99:Generated_Source\PSoC4/cyfitter_cfg.c **** #define CYCLOCKSTART_NO_ERROR    0u
 100:Generated_Source\PSoC4/cyfitter_cfg.c **** #define CYCLOCKSTART_XTAL_ERROR  1u
 101:Generated_Source\PSoC4/cyfitter_cfg.c **** #define CYCLOCKSTART_32KHZ_ERROR 2u
 102:Generated_Source\PSoC4/cyfitter_cfg.c **** #define CYCLOCKSTART_PLL_ERROR   3u
 103:Generated_Source\PSoC4/cyfitter_cfg.c **** #define CYCLOCKSTART_FLL_ERROR   4u
 104:Generated_Source\PSoC4/cyfitter_cfg.c **** #define CYCLOCKSTART_WCO_ERROR   5u
 105:Generated_Source\PSoC4/cyfitter_cfg.c **** 
 106:Generated_Source\PSoC4/cyfitter_cfg.c **** 
 107:Generated_Source\PSoC4/cyfitter_cfg.c **** #ifdef CY_NEED_CYCLOCKSTARTUPERROR
 108:Generated_Source\PSoC4/cyfitter_cfg.c **** /*******************************************************************************
 109:Generated_Source\PSoC4/cyfitter_cfg.c **** * Function Name: CyClockStartupError
 110:Generated_Source\PSoC4/cyfitter_cfg.c **** ********************************************************************************
 111:Generated_Source\PSoC4/cyfitter_cfg.c **** * Summary:
 112:Generated_Source\PSoC4/cyfitter_cfg.c **** *  If an error is encountered during clock configuration (crystal startup error,
 113:Generated_Source\PSoC4/cyfitter_cfg.c **** *  PLL lock error, etc.), the system will end up here.  Unless reimplemented by
 114:Generated_Source\PSoC4/cyfitter_cfg.c **** *  the customer, this function will stop in an infinite loop.
 115:Generated_Source\PSoC4/cyfitter_cfg.c **** *
 116:Generated_Source\PSoC4/cyfitter_cfg.c **** * Parameters:
 117:Generated_Source\PSoC4/cyfitter_cfg.c **** *   void
 118:Generated_Source\PSoC4/cyfitter_cfg.c **** *
 119:Generated_Source\PSoC4/cyfitter_cfg.c **** * Return:
 120:Generated_Source\PSoC4/cyfitter_cfg.c **** *   void
 121:Generated_Source\PSoC4/cyfitter_cfg.c **** *
 122:Generated_Source\PSoC4/cyfitter_cfg.c **** *******************************************************************************/
 123:Generated_Source\PSoC4/cyfitter_cfg.c **** CY_CFG_UNUSED
 124:Generated_Source\PSoC4/cyfitter_cfg.c **** static void CyClockStartupError(uint8 errorCode);
 125:Generated_Source\PSoC4/cyfitter_cfg.c **** CY_CFG_UNUSED
 126:Generated_Source\PSoC4/cyfitter_cfg.c **** static void CyClockStartupError(uint8 errorCode)
 127:Generated_Source\PSoC4/cyfitter_cfg.c **** {
 128:Generated_Source\PSoC4/cyfitter_cfg.c ****     /* To remove the compiler warning if errorCode not used.                */
 129:Generated_Source\PSoC4/cyfitter_cfg.c ****     errorCode = errorCode;
 130:Generated_Source\PSoC4/cyfitter_cfg.c **** 
 131:Generated_Source\PSoC4/cyfitter_cfg.c ****     /* If we have a clock startup error (bad MHz crystal, PLL lock, etc.),  */
 132:Generated_Source\PSoC4/cyfitter_cfg.c ****     /* we will end up here to allow the customer to implement something to  */
 133:Generated_Source\PSoC4/cyfitter_cfg.c ****     /* deal with the clock condition.                                       */
 134:Generated_Source\PSoC4/cyfitter_cfg.c **** 
 135:Generated_Source\PSoC4/cyfitter_cfg.c **** #ifdef CY_CFG_CLOCK_STARTUP_ERROR_CALLBACK
 136:Generated_Source\PSoC4/cyfitter_cfg.c ****     CY_CFG_Clock_Startup_ErrorCallback();
 137:Generated_Source\PSoC4/cyfitter_cfg.c **** #else
 138:Generated_Source\PSoC4/cyfitter_cfg.c ****     /*  If not using CY_CFG_CLOCK_STARTUP_ERROR_CALLBACK, place your clock startup code here. */
 139:Generated_Source\PSoC4/cyfitter_cfg.c ****     /* `#START CyClockStartupError` */
 140:Generated_Source\PSoC4/cyfitter_cfg.c **** 
 141:Generated_Source\PSoC4/cyfitter_cfg.c **** 
 142:Generated_Source\PSoC4/cyfitter_cfg.c **** 
 143:Generated_Source\PSoC4/cyfitter_cfg.c ****     /* `#END` */
 144:Generated_Source\PSoC4/cyfitter_cfg.c **** 
 145:Generated_Source\PSoC4/cyfitter_cfg.c ****     while(1) {}
ARM GAS  C:\Users\becca\AppData\Local\Temp\ccJeiGmP.s 			page 4


 146:Generated_Source\PSoC4/cyfitter_cfg.c **** #endif /* CY_CFG_CLOCK_STARTUP_ERROR_CALLBACK */
 147:Generated_Source\PSoC4/cyfitter_cfg.c **** }
 148:Generated_Source\PSoC4/cyfitter_cfg.c **** #endif
 149:Generated_Source\PSoC4/cyfitter_cfg.c **** 
 150:Generated_Source\PSoC4/cyfitter_cfg.c **** #define CY_CFG_BASE_ADDR_COUNT 7u
 151:Generated_Source\PSoC4/cyfitter_cfg.c **** CYPACKED typedef struct
 152:Generated_Source\PSoC4/cyfitter_cfg.c **** {
 153:Generated_Source\PSoC4/cyfitter_cfg.c **** 	uint8 offset;
 154:Generated_Source\PSoC4/cyfitter_cfg.c **** 	uint8 value;
 155:Generated_Source\PSoC4/cyfitter_cfg.c **** } CYPACKED_ATTR cy_cfg_addrvalue_t;
 156:Generated_Source\PSoC4/cyfitter_cfg.c **** 
 157:Generated_Source\PSoC4/cyfitter_cfg.c **** 
 158:Generated_Source\PSoC4/cyfitter_cfg.c **** 
 159:Generated_Source\PSoC4/cyfitter_cfg.c **** /*******************************************************************************
 160:Generated_Source\PSoC4/cyfitter_cfg.c **** * Function Name: cfg_write_bytes32
 161:Generated_Source\PSoC4/cyfitter_cfg.c **** ********************************************************************************
 162:Generated_Source\PSoC4/cyfitter_cfg.c **** * Summary:
 163:Generated_Source\PSoC4/cyfitter_cfg.c **** *  This function is used for setting up the chip configuration areas that
 164:Generated_Source\PSoC4/cyfitter_cfg.c **** *  contain relatively sparse data.
 165:Generated_Source\PSoC4/cyfitter_cfg.c **** *
 166:Generated_Source\PSoC4/cyfitter_cfg.c **** * Parameters:
 167:Generated_Source\PSoC4/cyfitter_cfg.c **** *   void
 168:Generated_Source\PSoC4/cyfitter_cfg.c **** *
 169:Generated_Source\PSoC4/cyfitter_cfg.c **** * Return:
 170:Generated_Source\PSoC4/cyfitter_cfg.c **** *   void
 171:Generated_Source\PSoC4/cyfitter_cfg.c **** *
 172:Generated_Source\PSoC4/cyfitter_cfg.c **** *******************************************************************************/
 173:Generated_Source\PSoC4/cyfitter_cfg.c **** static void cfg_write_bytes32(const uint32 addr_table[], const cy_cfg_addrvalue_t data_table[]);
 174:Generated_Source\PSoC4/cyfitter_cfg.c **** static void cfg_write_bytes32(const uint32 addr_table[], const cy_cfg_addrvalue_t data_table[])
 175:Generated_Source\PSoC4/cyfitter_cfg.c **** {
  27              		.loc 1 175 0
  28              		.cfi_startproc
  29              		@ args = 0, pretend = 0, frame = 0
  30              		@ frame_needed = 0, uses_anonymous_args = 0
  31              	.LVL0:
  32 0000 F0B5     		push	{r4, r5, r6, r7, lr}
  33              		.cfi_def_cfa_offset 20
  34              		.cfi_offset 4, -20
  35              		.cfi_offset 5, -16
  36              		.cfi_offset 6, -12
  37              		.cfi_offset 7, -8
  38              		.cfi_offset 14, -4
  39              	.LVL1:
 176:Generated_Source\PSoC4/cyfitter_cfg.c **** 	/* For 32-bit little-endian architectures */
 177:Generated_Source\PSoC4/cyfitter_cfg.c **** 	uint32 i, j = 0u;
  40              		.loc 1 177 0
  41 0002 0025     		movs	r5, #0
 178:Generated_Source\PSoC4/cyfitter_cfg.c **** 	for (i = 0u; i < CY_CFG_BASE_ADDR_COUNT; i++)
  42              		.loc 1 178 0
  43 0004 0027     		movs	r7, #0
  44 0006 11E0     		b	.L2
  45              	.LVL2:
  46              	.L5:
  47              	.LBB2:
 179:Generated_Source\PSoC4/cyfitter_cfg.c **** 	{
 180:Generated_Source\PSoC4/cyfitter_cfg.c **** 		uint32 baseAddr = addr_table[i];
  48              		.loc 1 180 0
ARM GAS  C:\Users\becca\AppData\Local\Temp\ccJeiGmP.s 			page 5


  49 0008 BB00     		lsls	r3, r7, #2
  50 000a C658     		ldr	r6, [r0, r3]
  51              	.LVL3:
 181:Generated_Source\PSoC4/cyfitter_cfg.c **** 		uint8 count = (uint8)baseAddr;
  52              		.loc 1 181 0
  53 000c F3B2     		uxtb	r3, r6
  54              	.LVL4:
 182:Generated_Source\PSoC4/cyfitter_cfg.c **** 		baseAddr &= 0xFFFFFF00u;
  55              		.loc 1 182 0
  56 000e FF22     		movs	r2, #255
  57 0010 9643     		bics	r6, r2
  58              	.LVL5:
 183:Generated_Source\PSoC4/cyfitter_cfg.c **** 		while (count != 0u)
  59              		.loc 1 183 0
  60 0012 08E0     		b	.L3
  61              	.L4:
 184:Generated_Source\PSoC4/cyfitter_cfg.c **** 		{
 185:Generated_Source\PSoC4/cyfitter_cfg.c **** 			CY_SET_REG8((void *)(baseAddr + data_table[j].offset), data_table[j].value);
  62              		.loc 1 185 0
  63 0014 6A00     		lsls	r2, r5, #1
  64 0016 8A18     		adds	r2, r1, r2
  65 0018 1478     		ldrb	r4, [r2]
  66 001a A419     		adds	r4, r4, r6
  67 001c 5278     		ldrb	r2, [r2, #1]
  68 001e 2270     		strb	r2, [r4]
 186:Generated_Source\PSoC4/cyfitter_cfg.c **** 			j++;
  69              		.loc 1 186 0
  70 0020 0135     		adds	r5, r5, #1
  71              	.LVL6:
 187:Generated_Source\PSoC4/cyfitter_cfg.c **** 			count--;
  72              		.loc 1 187 0
  73 0022 013B     		subs	r3, r3, #1
  74              	.LVL7:
  75 0024 DBB2     		uxtb	r3, r3
  76              	.LVL8:
  77              	.L3:
 183:Generated_Source\PSoC4/cyfitter_cfg.c **** 		{
  78              		.loc 1 183 0
  79 0026 002B     		cmp	r3, #0
  80 0028 F4D1     		bne	.L4
  81              	.LBE2:
 178:Generated_Source\PSoC4/cyfitter_cfg.c **** 	{
  82              		.loc 1 178 0 discriminator 2
  83 002a 0137     		adds	r7, r7, #1
  84              	.LVL9:
  85              	.L2:
 178:Generated_Source\PSoC4/cyfitter_cfg.c **** 	{
  86              		.loc 1 178 0 is_stmt 0 discriminator 1
  87 002c 062F     		cmp	r7, #6
  88 002e EBD9     		bls	.L5
 188:Generated_Source\PSoC4/cyfitter_cfg.c **** 		}
 189:Generated_Source\PSoC4/cyfitter_cfg.c **** 	}
 190:Generated_Source\PSoC4/cyfitter_cfg.c **** }
  89              		.loc 1 190 0 is_stmt 1
  90              		@ sp needed
  91              	.LVL10:
  92              	.LVL11:
ARM GAS  C:\Users\becca\AppData\Local\Temp\ccJeiGmP.s 			page 6


  93 0030 F0BD     		pop	{r4, r5, r6, r7, pc}
  94              		.cfi_endproc
  95              	.LFE4:
  96              		.size	cfg_write_bytes32, .-cfg_write_bytes32
  97 0032 C046     		.section	.text.CYMEMZERO,"ax",%progbits
  98              		.align	2
  99              		.code	16
 100              		.thumb_func
 101              		.type	CYMEMZERO, %function
 102              	CYMEMZERO:
 103              	.LFB1:
  77:Generated_Source\PSoC4/cyfitter_cfg.c **** 	(void)memset(s, 0, n);
 104              		.loc 1 77 0
 105              		.cfi_startproc
 106              		@ args = 0, pretend = 0, frame = 0
 107              		@ frame_needed = 0, uses_anonymous_args = 0
 108              	.LVL12:
 109 0000 10B5     		push	{r4, lr}
 110              		.cfi_def_cfa_offset 8
 111              		.cfi_offset 4, -8
 112              		.cfi_offset 14, -4
 113 0002 0A00     		movs	r2, r1
  78:Generated_Source\PSoC4/cyfitter_cfg.c **** }
 114              		.loc 1 78 0
 115 0004 0021     		movs	r1, #0
 116              	.LVL13:
 117 0006 FFF7FEFF 		bl	memset
 118              	.LVL14:
  79:Generated_Source\PSoC4/cyfitter_cfg.c **** CY_CFG_UNUSED
 119              		.loc 1 79 0
 120              		@ sp needed
 121 000a 10BD     		pop	{r4, pc}
 122              		.cfi_endproc
 123              	.LFE1:
 124              		.size	CYMEMZERO, .-CYMEMZERO
 125              		.section	.psocinit,"ax",%progbits
 126              		.align	2
 127              		.code	16
 128              		.thumb_func
 129              		.type	ClockSetup, %function
 130              	ClockSetup:
 131              	.LFB5:
 191:Generated_Source\PSoC4/cyfitter_cfg.c **** 
 192:Generated_Source\PSoC4/cyfitter_cfg.c **** 
 193:Generated_Source\PSoC4/cyfitter_cfg.c **** /*******************************************************************************
 194:Generated_Source\PSoC4/cyfitter_cfg.c **** * Function Name: ClockSetup
 195:Generated_Source\PSoC4/cyfitter_cfg.c **** ********************************************************************************
 196:Generated_Source\PSoC4/cyfitter_cfg.c **** *
 197:Generated_Source\PSoC4/cyfitter_cfg.c **** * Summary:
 198:Generated_Source\PSoC4/cyfitter_cfg.c **** *   Performs the initialization of all of the clocks in the device based on the
 199:Generated_Source\PSoC4/cyfitter_cfg.c **** *   settings in the Clock tab of the DWR.  This includes enabling the requested
 200:Generated_Source\PSoC4/cyfitter_cfg.c **** *   clocks and setting the necessary dividers to produce the desired frequency. 
 201:Generated_Source\PSoC4/cyfitter_cfg.c **** *
 202:Generated_Source\PSoC4/cyfitter_cfg.c **** * Parameters:
 203:Generated_Source\PSoC4/cyfitter_cfg.c **** *   void
 204:Generated_Source\PSoC4/cyfitter_cfg.c **** *
 205:Generated_Source\PSoC4/cyfitter_cfg.c **** * Return:
ARM GAS  C:\Users\becca\AppData\Local\Temp\ccJeiGmP.s 			page 7


 206:Generated_Source\PSoC4/cyfitter_cfg.c **** *   void
 207:Generated_Source\PSoC4/cyfitter_cfg.c **** *
 208:Generated_Source\PSoC4/cyfitter_cfg.c **** *******************************************************************************/
 209:Generated_Source\PSoC4/cyfitter_cfg.c **** static void ClockSetup(void);
 210:Generated_Source\PSoC4/cyfitter_cfg.c **** CY_CFG_SECTION
 211:Generated_Source\PSoC4/cyfitter_cfg.c **** static void ClockSetup(void)
 212:Generated_Source\PSoC4/cyfitter_cfg.c **** {
 132              		.loc 1 212 0
 133              		.cfi_startproc
 134              		@ args = 0, pretend = 0, frame = 0
 135              		@ frame_needed = 0, uses_anonymous_args = 0
 136 0000 10B5     		push	{r4, lr}
 137              		.cfi_def_cfa_offset 8
 138              		.cfi_offset 4, -8
 139              		.cfi_offset 14, -4
 213:Generated_Source\PSoC4/cyfitter_cfg.c **** 
 214:Generated_Source\PSoC4/cyfitter_cfg.c **** 	/* Set Flash Cycles based on max possible frequency in case a glitch occurs during ClockSetup(). *
 215:Generated_Source\PSoC4/cyfitter_cfg.c **** 	CY_SET_REG32((void CYXDATA *)(CYREG_CPUSS_FLASH_CTL), (0x0012u));
 140              		.loc 1 215 0
 141 0002 1222     		movs	r2, #18
 142 0004 2E4B     		ldr	r3, .L8
 143 0006 1A60     		str	r2, [r3]
 216:Generated_Source\PSoC4/cyfitter_cfg.c **** 	/* Setup and trim IMO based on desired frequency. */
 217:Generated_Source\PSoC4/cyfitter_cfg.c **** 	CySysClkWriteImoFreq(48u);
 144              		.loc 1 217 0
 145 0008 3020     		movs	r0, #48
 146 000a FFF7FEFF 		bl	CySysClkWriteImoFreq
 147              	.LVL15:
 218:Generated_Source\PSoC4/cyfitter_cfg.c **** 	/* CYDEV_CLK_ILO_CONFIG Starting address: CYDEV_CLK_ILO_CONFIG */
 219:Generated_Source\PSoC4/cyfitter_cfg.c **** 	CY_SET_REG32((void *)(CYREG_CLK_ILO_CONFIG), 0x80000006u);
 148              		.loc 1 219 0
 149 000e 2D4A     		ldr	r2, .L8+4
 150 0010 2D4B     		ldr	r3, .L8+8
 151 0012 1A60     		str	r2, [r3]
 220:Generated_Source\PSoC4/cyfitter_cfg.c **** 
 221:Generated_Source\PSoC4/cyfitter_cfg.c **** 
 222:Generated_Source\PSoC4/cyfitter_cfg.c **** 	/* Setup phase aligned clocks */
 223:Generated_Source\PSoC4/cyfitter_cfg.c **** 	CY_SET_REG32((void *)CYREG_PERI_DIV_16_CTL5, 0x00002F00u);
 152              		.loc 1 223 0
 153 0014 BC22     		movs	r2, #188
 154 0016 9201     		lsls	r2, r2, #6
 155 0018 2C4B     		ldr	r3, .L8+12
 156 001a 1A60     		str	r2, [r3]
 224:Generated_Source\PSoC4/cyfitter_cfg.c **** 	CY_SET_REG32((void *)CYREG_PERI_DIV_CMD, 0x8000FF45u);
 157              		.loc 1 224 0
 158 001c 2C4B     		ldr	r3, .L8+16
 159 001e 2D49     		ldr	r1, .L8+20
 160 0020 1960     		str	r1, [r3]
 225:Generated_Source\PSoC4/cyfitter_cfg.c **** 	CY_SET_REG32((void *)CYREG_PERI_DIV_16_CTL6, 0x00002F00u);
 161              		.loc 1 225 0
 162 0022 2D49     		ldr	r1, .L8+24
 163 0024 0A60     		str	r2, [r1]
 226:Generated_Source\PSoC4/cyfitter_cfg.c **** 	CY_SET_REG32((void *)CYREG_PERI_DIV_CMD, 0x8000FF46u);
 164              		.loc 1 226 0
 165 0026 2D4A     		ldr	r2, .L8+28
 166 0028 1A60     		str	r2, [r3]
 227:Generated_Source\PSoC4/cyfitter_cfg.c **** 	CY_SET_REG32((void *)CYREG_PERI_DIV_16_CTL0, 0x0000FE00u);
ARM GAS  C:\Users\becca\AppData\Local\Temp\ccJeiGmP.s 			page 8


 167              		.loc 1 227 0
 168 002a FE22     		movs	r2, #254
 169 002c 1202     		lsls	r2, r2, #8
 170 002e 2C49     		ldr	r1, .L8+32
 171 0030 0A60     		str	r2, [r1]
 228:Generated_Source\PSoC4/cyfitter_cfg.c **** 	CY_SET_REG32((void *)CYREG_PERI_DIV_CMD, 0x8000FF40u);
 172              		.loc 1 228 0
 173 0032 2C49     		ldr	r1, .L8+36
 174 0034 1960     		str	r1, [r3]
 229:Generated_Source\PSoC4/cyfitter_cfg.c **** 	CY_SET_REG32((void *)CYREG_PERI_DIV_16_CTL1, 0x0000FE00u);
 175              		.loc 1 229 0
 176 0036 2C49     		ldr	r1, .L8+40
 177 0038 0A60     		str	r2, [r1]
 230:Generated_Source\PSoC4/cyfitter_cfg.c **** 	CY_SET_REG32((void *)CYREG_PERI_DIV_CMD, 0x8000FF41u);
 178              		.loc 1 230 0
 179 003a 2C4A     		ldr	r2, .L8+44
 180 003c 1A60     		str	r2, [r3]
 231:Generated_Source\PSoC4/cyfitter_cfg.c **** 	CY_SET_REG32((void *)CYREG_PERI_DIV_16_CTL4, 0x00002200u);
 181              		.loc 1 231 0
 182 003e 8821     		movs	r1, #136
 183 0040 8901     		lsls	r1, r1, #6
 184 0042 2B4A     		ldr	r2, .L8+48
 185 0044 1160     		str	r1, [r2]
 232:Generated_Source\PSoC4/cyfitter_cfg.c **** 	CY_SET_REG32((void *)CYREG_PERI_DIV_CMD, 0x8000FF44u);
 186              		.loc 1 232 0
 187 0046 2B4A     		ldr	r2, .L8+52
 188 0048 1A60     		str	r2, [r3]
 233:Generated_Source\PSoC4/cyfitter_cfg.c **** 	CY_SET_REG32((void *)CYREG_PERI_DIV_16_CTL3, 0x00001D00u);
 189              		.loc 1 233 0
 190 004a E821     		movs	r1, #232
 191 004c 4901     		lsls	r1, r1, #5
 192 004e 2A4A     		ldr	r2, .L8+56
 193 0050 1160     		str	r1, [r2]
 234:Generated_Source\PSoC4/cyfitter_cfg.c **** 	CY_SET_REG32((void *)CYREG_PERI_DIV_CMD, 0x8000FF43u);
 194              		.loc 1 234 0
 195 0052 2A4A     		ldr	r2, .L8+60
 196 0054 1A60     		str	r2, [r3]
 235:Generated_Source\PSoC4/cyfitter_cfg.c **** 	CY_SET_REG32((void *)CYREG_PERI_DIV_16_CTL2, 0x00000200u);
 197              		.loc 1 235 0
 198 0056 8021     		movs	r1, #128
 199 0058 8900     		lsls	r1, r1, #2
 200 005a 294A     		ldr	r2, .L8+64
 201 005c 1160     		str	r1, [r2]
 236:Generated_Source\PSoC4/cyfitter_cfg.c **** 	CY_SET_REG32((void *)CYREG_PERI_DIV_CMD, 0x8000FF42u);
 202              		.loc 1 236 0
 203 005e 294A     		ldr	r2, .L8+68
 204 0060 1A60     		str	r2, [r3]
 237:Generated_Source\PSoC4/cyfitter_cfg.c **** 
 238:Generated_Source\PSoC4/cyfitter_cfg.c **** 	/* CYDEV_CLK_IMO_CONFIG Starting address: CYDEV_CLK_IMO_CONFIG */
 239:Generated_Source\PSoC4/cyfitter_cfg.c **** 	CY_SET_REG32((void *)(CYREG_CLK_IMO_CONFIG), 0x82000000u);
 205              		.loc 1 239 0
 206 0062 8222     		movs	r2, #130
 207 0064 1206     		lsls	r2, r2, #24
 208 0066 284B     		ldr	r3, .L8+72
 209 0068 1A60     		str	r2, [r3]
 240:Generated_Source\PSoC4/cyfitter_cfg.c **** 
 241:Generated_Source\PSoC4/cyfitter_cfg.c **** 	/* CYDEV_CLK_SELECT Starting address: CYDEV_CLK_SELECT */
ARM GAS  C:\Users\becca\AppData\Local\Temp\ccJeiGmP.s 			page 9


 242:Generated_Source\PSoC4/cyfitter_cfg.c **** 	CY_SET_REG32((void *)(CYREG_CLK_SELECT), 0x00040000u);
 210              		.loc 1 242 0
 211 006a 8022     		movs	r2, #128
 212 006c D202     		lsls	r2, r2, #11
 213 006e 274B     		ldr	r3, .L8+76
 214 0070 1A60     		str	r2, [r3]
 243:Generated_Source\PSoC4/cyfitter_cfg.c **** 
 244:Generated_Source\PSoC4/cyfitter_cfg.c **** 	/* CYDEV_PERI_PCLK_CTL14 Starting address: CYDEV_PERI_PCLK_CTL14 */
 245:Generated_Source\PSoC4/cyfitter_cfg.c **** 	CY_SET_REG32((void *)(CYREG_PERI_PCLK_CTL14), 0x00000045u);
 215              		.loc 1 245 0
 216 0072 4523     		movs	r3, #69
 217 0074 264A     		ldr	r2, .L8+80
 218 0076 1360     		str	r3, [r2]
 246:Generated_Source\PSoC4/cyfitter_cfg.c **** 
 247:Generated_Source\PSoC4/cyfitter_cfg.c **** 	/* CYDEV_PERI_PCLK_CTL13 Starting address: CYDEV_PERI_PCLK_CTL13 */
 248:Generated_Source\PSoC4/cyfitter_cfg.c **** 	CY_SET_REG32((void *)(CYREG_PERI_PCLK_CTL13), 0x00000045u);
 219              		.loc 1 248 0
 220 0078 264A     		ldr	r2, .L8+84
 221 007a 1360     		str	r3, [r2]
 249:Generated_Source\PSoC4/cyfitter_cfg.c **** 
 250:Generated_Source\PSoC4/cyfitter_cfg.c **** 	/* CYDEV_PERI_PCLK_CTL12 Starting address: CYDEV_PERI_PCLK_CTL12 */
 251:Generated_Source\PSoC4/cyfitter_cfg.c **** 	CY_SET_REG32((void *)(CYREG_PERI_PCLK_CTL12), 0x00000045u);
 222              		.loc 1 251 0
 223 007c 264A     		ldr	r2, .L8+88
 224 007e 1360     		str	r3, [r2]
 252:Generated_Source\PSoC4/cyfitter_cfg.c **** 
 253:Generated_Source\PSoC4/cyfitter_cfg.c **** 	/* CYDEV_PERI_PCLK_CTL11 Starting address: CYDEV_PERI_PCLK_CTL11 */
 254:Generated_Source\PSoC4/cyfitter_cfg.c **** 	CY_SET_REG32((void *)(CYREG_PERI_PCLK_CTL11), 0x00000045u);
 225              		.loc 1 254 0
 226 0080 264A     		ldr	r2, .L8+92
 227 0082 1360     		str	r3, [r2]
 255:Generated_Source\PSoC4/cyfitter_cfg.c **** 
 256:Generated_Source\PSoC4/cyfitter_cfg.c **** 	/* CYDEV_PERI_PCLK_CTL10 Starting address: CYDEV_PERI_PCLK_CTL10 */
 257:Generated_Source\PSoC4/cyfitter_cfg.c **** 	CY_SET_REG32((void *)(CYREG_PERI_PCLK_CTL10), 0x00000046u);
 228              		.loc 1 257 0
 229 0084 4622     		movs	r2, #70
 230 0086 264B     		ldr	r3, .L8+96
 231 0088 1A60     		str	r2, [r3]
 258:Generated_Source\PSoC4/cyfitter_cfg.c **** 
 259:Generated_Source\PSoC4/cyfitter_cfg.c **** 	/* CYDEV_PERI_PCLK_CTL7 Starting address: CYDEV_PERI_PCLK_CTL7 */
 260:Generated_Source\PSoC4/cyfitter_cfg.c **** 	CY_SET_REG32((void *)(CYREG_PERI_PCLK_CTL7), 0x00000040u);
 232              		.loc 1 260 0
 233 008a 063A     		subs	r2, r2, #6
 234 008c 254B     		ldr	r3, .L8+100
 235 008e 1A60     		str	r2, [r3]
 261:Generated_Source\PSoC4/cyfitter_cfg.c **** 
 262:Generated_Source\PSoC4/cyfitter_cfg.c **** 	/* CYDEV_PERI_PCLK_CTL6 Starting address: CYDEV_PERI_PCLK_CTL6 */
 263:Generated_Source\PSoC4/cyfitter_cfg.c **** 	CY_SET_REG32((void *)(CYREG_PERI_PCLK_CTL6), 0x00000041u);
 236              		.loc 1 263 0
 237 0090 0132     		adds	r2, r2, #1
 238 0092 254B     		ldr	r3, .L8+104
 239 0094 1A60     		str	r2, [r3]
 264:Generated_Source\PSoC4/cyfitter_cfg.c **** 
 265:Generated_Source\PSoC4/cyfitter_cfg.c **** 	/* CYDEV_PERI_PCLK_CTL5 Starting address: CYDEV_PERI_PCLK_CTL5 */
 266:Generated_Source\PSoC4/cyfitter_cfg.c **** 	CY_SET_REG32((void *)(CYREG_PERI_PCLK_CTL5), 0x00000044u);
 240              		.loc 1 266 0
 241 0096 0332     		adds	r2, r2, #3
ARM GAS  C:\Users\becca\AppData\Local\Temp\ccJeiGmP.s 			page 10


 242 0098 244B     		ldr	r3, .L8+108
 243 009a 1A60     		str	r2, [r3]
 267:Generated_Source\PSoC4/cyfitter_cfg.c **** 
 268:Generated_Source\PSoC4/cyfitter_cfg.c **** 	/* CYDEV_PERI_PCLK_CTL3 Starting address: CYDEV_PERI_PCLK_CTL3 */
 269:Generated_Source\PSoC4/cyfitter_cfg.c **** 	CY_SET_REG32((void *)(CYREG_PERI_PCLK_CTL3), 0x00000043u);
 244              		.loc 1 269 0
 245 009c 013A     		subs	r2, r2, #1
 246 009e 244B     		ldr	r3, .L8+112
 247 00a0 1A60     		str	r2, [r3]
 270:Generated_Source\PSoC4/cyfitter_cfg.c **** 
 271:Generated_Source\PSoC4/cyfitter_cfg.c **** 	/* CYDEV_PERI_PCLK_CTL2 Starting address: CYDEV_PERI_PCLK_CTL2 */
 272:Generated_Source\PSoC4/cyfitter_cfg.c **** 	CY_SET_REG32((void *)(CYREG_PERI_PCLK_CTL2), 0x00000042u);
 248              		.loc 1 272 0
 249 00a2 013A     		subs	r2, r2, #1
 250 00a4 234B     		ldr	r3, .L8+116
 251 00a6 1A60     		str	r2, [r3]
 273:Generated_Source\PSoC4/cyfitter_cfg.c **** 
 274:Generated_Source\PSoC4/cyfitter_cfg.c **** 	(void)CyIntSetVector(7u, &CySysWdtIsr);
 252              		.loc 1 274 0
 253 00a8 2349     		ldr	r1, .L8+120
 254 00aa 0720     		movs	r0, #7
 255 00ac FFF7FEFF 		bl	CyIntSetVector
 256              	.LVL16:
 275:Generated_Source\PSoC4/cyfitter_cfg.c **** 	CyIntEnable(7u);
 257              		.loc 1 275 0
 258 00b0 0720     		movs	r0, #7
 259 00b2 FFF7FEFF 		bl	CyIntEnable
 260              	.LVL17:
 276:Generated_Source\PSoC4/cyfitter_cfg.c **** 	CY_SET_REG32((void *)(CYREG_WDT_CONFIG), 0x00000000u);
 261              		.loc 1 276 0
 262 00b6 0022     		movs	r2, #0
 263 00b8 204B     		ldr	r3, .L8+124
 264 00ba 1A60     		str	r2, [r3]
 277:Generated_Source\PSoC4/cyfitter_cfg.c **** }
 265              		.loc 1 277 0
 266              		@ sp needed
 267 00bc 10BD     		pop	{r4, pc}
 268              	.L9:
 269 00be C046     		.align	2
 270              	.L8:
 271 00c0 30001040 		.word	1074790448
 272 00c4 06000080 		.word	-2147483642
 273 00c8 04010B40 		.word	1074462980
 274 00cc 14030140 		.word	1073808148
 275 00d0 00000140 		.word	1073807360
 276 00d4 45FF0080 		.word	-2147418299
 277 00d8 18030140 		.word	1073808152
 278 00dc 46FF0080 		.word	-2147418298
 279 00e0 00030140 		.word	1073808128
 280 00e4 40FF0080 		.word	-2147418304
 281 00e8 04030140 		.word	1073808132
 282 00ec 41FF0080 		.word	-2147418303
 283 00f0 10030140 		.word	1073808144
 284 00f4 44FF0080 		.word	-2147418300
 285 00f8 0C030140 		.word	1073808140
 286 00fc 43FF0080 		.word	-2147418301
 287 0100 08030140 		.word	1073808136
ARM GAS  C:\Users\becca\AppData\Local\Temp\ccJeiGmP.s 			page 11


 288 0104 42FF0080 		.word	-2147418302
 289 0108 08010B40 		.word	1074462984
 290 010c 00010B40 		.word	1074462976
 291 0110 38010140 		.word	1073807672
 292 0114 34010140 		.word	1073807668
 293 0118 30010140 		.word	1073807664
 294 011c 2C010140 		.word	1073807660
 295 0120 28010140 		.word	1073807656
 296 0124 1C010140 		.word	1073807644
 297 0128 18010140 		.word	1073807640
 298 012c 14010140 		.word	1073807636
 299 0130 0C010140 		.word	1073807628
 300 0134 08010140 		.word	1073807624
 301 0138 00000000 		.word	CySysWdtIsr
 302 013c 0C020B40 		.word	1074463244
 303              		.cfi_endproc
 304              	.LFE5:
 305              		.size	ClockSetup, .-ClockSetup
 306              		.section	.text.SetAnalogRoutingPumps,"ax",%progbits
 307              		.align	2
 308              		.global	SetAnalogRoutingPumps
 309              		.code	16
 310              		.thumb_func
 311              		.type	SetAnalogRoutingPumps, %function
 312              	SetAnalogRoutingPumps:
 313              	.LFB7:
 278:Generated_Source\PSoC4/cyfitter_cfg.c **** 
 279:Generated_Source\PSoC4/cyfitter_cfg.c **** 
 280:Generated_Source\PSoC4/cyfitter_cfg.c **** /* Analog API Functions */
 281:Generated_Source\PSoC4/cyfitter_cfg.c **** 
 282:Generated_Source\PSoC4/cyfitter_cfg.c **** 
 283:Generated_Source\PSoC4/cyfitter_cfg.c **** /*******************************************************************************
 284:Generated_Source\PSoC4/cyfitter_cfg.c **** * Function Name: AnalogSetDefault
 285:Generated_Source\PSoC4/cyfitter_cfg.c **** ********************************************************************************
 286:Generated_Source\PSoC4/cyfitter_cfg.c **** *
 287:Generated_Source\PSoC4/cyfitter_cfg.c **** * Summary:
 288:Generated_Source\PSoC4/cyfitter_cfg.c **** *  Sets up the analog portions of the chip to default values based on chip
 289:Generated_Source\PSoC4/cyfitter_cfg.c **** *  configuration options from the project.
 290:Generated_Source\PSoC4/cyfitter_cfg.c **** *
 291:Generated_Source\PSoC4/cyfitter_cfg.c **** * Parameters:
 292:Generated_Source\PSoC4/cyfitter_cfg.c **** *  void
 293:Generated_Source\PSoC4/cyfitter_cfg.c **** *
 294:Generated_Source\PSoC4/cyfitter_cfg.c **** * Return:
 295:Generated_Source\PSoC4/cyfitter_cfg.c **** *  void
 296:Generated_Source\PSoC4/cyfitter_cfg.c **** *
 297:Generated_Source\PSoC4/cyfitter_cfg.c **** *******************************************************************************/
 298:Generated_Source\PSoC4/cyfitter_cfg.c **** static void AnalogSetDefault(void);
 299:Generated_Source\PSoC4/cyfitter_cfg.c **** static void AnalogSetDefault(void)
 300:Generated_Source\PSoC4/cyfitter_cfg.c **** {
 301:Generated_Source\PSoC4/cyfitter_cfg.c **** 	CY_SET_XTND_REG32((void CYFAR *)CYREG_CTBM0_CTB_CTRL, 0x80000000u);
 302:Generated_Source\PSoC4/cyfitter_cfg.c **** 	CY_SET_XTND_REG32((void CYFAR *)CYREG_CTBM0_DFT_CTRL, 0x00000003u);
 303:Generated_Source\PSoC4/cyfitter_cfg.c **** 	CY_SET_XTND_REG32((void CYFAR *)CYREG_CTBM0_OA0_SW, 0x00044004u);
 304:Generated_Source\PSoC4/cyfitter_cfg.c **** 	CY_SET_XTND_REG32((void CYFAR *)CYREG_CTBM0_OA1_SW, 0x00044002u);
 305:Generated_Source\PSoC4/cyfitter_cfg.c **** 	CY_SET_XTND_REG32((void CYFAR *)CYREG_CTBM0_CTB_SW_HW_CTRL, 0x0000000Cu);
 306:Generated_Source\PSoC4/cyfitter_cfg.c **** 	CY_SET_XTND_REG32((void CYFAR *)CYREG_CTBM1_DFT_CTRL, 0x00000003u);
 307:Generated_Source\PSoC4/cyfitter_cfg.c **** 	CY_SET_XTND_REG32((void CYFAR *)CYREG_SAR_CTRL, 0x80000000u);
 308:Generated_Source\PSoC4/cyfitter_cfg.c **** 	CY_SET_XTND_REG32((void CYFAR *)CYREG_SAR_MUX_SWITCH0, 0x00438041u);
ARM GAS  C:\Users\becca\AppData\Local\Temp\ccJeiGmP.s 			page 12


 309:Generated_Source\PSoC4/cyfitter_cfg.c **** 	CY_SET_XTND_REG32((void CYFAR *)CYREG_SAR_MUX_SWITCH_HW_CTRL, 0x004300C1u);
 310:Generated_Source\PSoC4/cyfitter_cfg.c **** 	CY_SET_XTND_REG32((void CYFAR *)CYREG_PASS_DSAB_DSAB_CTRL, 0x00000000u);
 311:Generated_Source\PSoC4/cyfitter_cfg.c **** 	SetAnalogRoutingPumps(1);
 312:Generated_Source\PSoC4/cyfitter_cfg.c **** }
 313:Generated_Source\PSoC4/cyfitter_cfg.c **** 
 314:Generated_Source\PSoC4/cyfitter_cfg.c **** 
 315:Generated_Source\PSoC4/cyfitter_cfg.c **** /*******************************************************************************
 316:Generated_Source\PSoC4/cyfitter_cfg.c **** * Function Name: SetAnalogRoutingPumps
 317:Generated_Source\PSoC4/cyfitter_cfg.c **** ********************************************************************************
 318:Generated_Source\PSoC4/cyfitter_cfg.c **** *
 319:Generated_Source\PSoC4/cyfitter_cfg.c **** * Summary:
 320:Generated_Source\PSoC4/cyfitter_cfg.c **** * Enables or disables the analog pumps feeding analog routing switches.
 321:Generated_Source\PSoC4/cyfitter_cfg.c **** * Intended to be called at startup, based on the Vdda system configuration;
 322:Generated_Source\PSoC4/cyfitter_cfg.c **** * may be called during operation when the user informs us that the Vdda voltage crossed the pump th
 323:Generated_Source\PSoC4/cyfitter_cfg.c **** *
 324:Generated_Source\PSoC4/cyfitter_cfg.c **** * Parameters:
 325:Generated_Source\PSoC4/cyfitter_cfg.c **** *  enabled - 1 to enable the pumps, 0 to disable the pumps
 326:Generated_Source\PSoC4/cyfitter_cfg.c **** *
 327:Generated_Source\PSoC4/cyfitter_cfg.c **** * Return:
 328:Generated_Source\PSoC4/cyfitter_cfg.c **** *  void
 329:Generated_Source\PSoC4/cyfitter_cfg.c **** *
 330:Generated_Source\PSoC4/cyfitter_cfg.c **** *******************************************************************************/
 331:Generated_Source\PSoC4/cyfitter_cfg.c **** void SetAnalogRoutingPumps(uint8 enabled)
 332:Generated_Source\PSoC4/cyfitter_cfg.c **** {
 314              		.loc 1 332 0
 315              		.cfi_startproc
 316              		@ args = 0, pretend = 0, frame = 0
 317              		@ frame_needed = 0, uses_anonymous_args = 0
 318              		@ link register save eliminated.
 319              	.LVL18:
 333:Generated_Source\PSoC4/cyfitter_cfg.c **** 	uint32 regValue = CY_GET_XTND_REG32((void *)(CYREG_SAR_PUMP_CTRL));
 320              		.loc 1 333 0
 321 0000 064B     		ldr	r3, .L13
 322 0002 1B68     		ldr	r3, [r3]
 323              	.LVL19:
 334:Generated_Source\PSoC4/cyfitter_cfg.c **** 	if (enabled != 0u)
 324              		.loc 1 334 0
 325 0004 0028     		cmp	r0, #0
 326 0006 03D0     		beq	.L11
 335:Generated_Source\PSoC4/cyfitter_cfg.c **** 	{
 336:Generated_Source\PSoC4/cyfitter_cfg.c **** 		regValue |= 0x80000000u;
 327              		.loc 1 336 0
 328 0008 8022     		movs	r2, #128
 329 000a 1206     		lsls	r2, r2, #24
 330 000c 1343     		orrs	r3, r2
 331              	.LVL20:
 332 000e 01E0     		b	.L12
 333              	.L11:
 337:Generated_Source\PSoC4/cyfitter_cfg.c **** 	}
 338:Generated_Source\PSoC4/cyfitter_cfg.c **** 	else
 339:Generated_Source\PSoC4/cyfitter_cfg.c **** 	{
 340:Generated_Source\PSoC4/cyfitter_cfg.c **** 		regValue &= ~0x80000000u;
 334              		.loc 1 340 0
 335 0010 5B00     		lsls	r3, r3, #1
 336              	.LVL21:
 337 0012 5B08     		lsrs	r3, r3, #1
 338              	.LVL22:
ARM GAS  C:\Users\becca\AppData\Local\Temp\ccJeiGmP.s 			page 13


 339              	.L12:
 341:Generated_Source\PSoC4/cyfitter_cfg.c **** 	}
 342:Generated_Source\PSoC4/cyfitter_cfg.c **** 	CY_SET_XTND_REG32((void *)(CYREG_SAR_PUMP_CTRL), regValue);
 340              		.loc 1 342 0
 341 0014 014A     		ldr	r2, .L13
 342 0016 1360     		str	r3, [r2]
 343:Generated_Source\PSoC4/cyfitter_cfg.c **** }
 343              		.loc 1 343 0
 344              		@ sp needed
 345 0018 7047     		bx	lr
 346              	.L14:
 347 001a C046     		.align	2
 348              	.L13:
 349 001c 80033A40 		.word	1077543808
 350              		.cfi_endproc
 351              	.LFE7:
 352              		.size	SetAnalogRoutingPumps, .-SetAnalogRoutingPumps
 353              		.section	.text.AnalogSetDefault,"ax",%progbits
 354              		.align	2
 355              		.code	16
 356              		.thumb_func
 357              		.type	AnalogSetDefault, %function
 358              	AnalogSetDefault:
 359              	.LFB6:
 300:Generated_Source\PSoC4/cyfitter_cfg.c **** 	CY_SET_XTND_REG32((void CYFAR *)CYREG_CTBM0_CTB_CTRL, 0x80000000u);
 360              		.loc 1 300 0
 361              		.cfi_startproc
 362              		@ args = 0, pretend = 0, frame = 0
 363              		@ frame_needed = 0, uses_anonymous_args = 0
 364 0000 10B5     		push	{r4, lr}
 365              		.cfi_def_cfa_offset 8
 366              		.cfi_offset 4, -8
 367              		.cfi_offset 14, -4
 301:Generated_Source\PSoC4/cyfitter_cfg.c **** 	CY_SET_XTND_REG32((void CYFAR *)CYREG_CTBM0_DFT_CTRL, 0x00000003u);
 368              		.loc 1 301 0
 369 0002 8023     		movs	r3, #128
 370 0004 1B06     		lsls	r3, r3, #24
 371 0006 0F4A     		ldr	r2, .L16
 372 0008 1360     		str	r3, [r2]
 302:Generated_Source\PSoC4/cyfitter_cfg.c **** 	CY_SET_XTND_REG32((void CYFAR *)CYREG_CTBM0_OA0_SW, 0x00044004u);
 373              		.loc 1 302 0
 374 000a 0322     		movs	r2, #3
 375 000c 0E49     		ldr	r1, .L16+4
 376 000e 0A60     		str	r2, [r1]
 303:Generated_Source\PSoC4/cyfitter_cfg.c **** 	CY_SET_XTND_REG32((void CYFAR *)CYREG_CTBM0_OA1_SW, 0x00044002u);
 377              		.loc 1 303 0
 378 0010 0E48     		ldr	r0, .L16+8
 379 0012 0F49     		ldr	r1, .L16+12
 380 0014 0860     		str	r0, [r1]
 304:Generated_Source\PSoC4/cyfitter_cfg.c **** 	CY_SET_XTND_REG32((void CYFAR *)CYREG_CTBM0_CTB_SW_HW_CTRL, 0x0000000Cu);
 381              		.loc 1 304 0
 382 0016 0F48     		ldr	r0, .L16+16
 383 0018 0F49     		ldr	r1, .L16+20
 384 001a 0860     		str	r0, [r1]
 305:Generated_Source\PSoC4/cyfitter_cfg.c **** 	CY_SET_XTND_REG32((void CYFAR *)CYREG_CTBM1_DFT_CTRL, 0x00000003u);
 385              		.loc 1 305 0
 386 001c 0C20     		movs	r0, #12
ARM GAS  C:\Users\becca\AppData\Local\Temp\ccJeiGmP.s 			page 14


 387 001e 0F49     		ldr	r1, .L16+24
 388 0020 0860     		str	r0, [r1]
 306:Generated_Source\PSoC4/cyfitter_cfg.c **** 	CY_SET_XTND_REG32((void CYFAR *)CYREG_SAR_CTRL, 0x80000000u);
 389              		.loc 1 306 0
 390 0022 0F49     		ldr	r1, .L16+28
 391 0024 0A60     		str	r2, [r1]
 307:Generated_Source\PSoC4/cyfitter_cfg.c **** 	CY_SET_XTND_REG32((void CYFAR *)CYREG_SAR_MUX_SWITCH0, 0x00438041u);
 392              		.loc 1 307 0
 393 0026 0F4A     		ldr	r2, .L16+32
 394 0028 1360     		str	r3, [r2]
 308:Generated_Source\PSoC4/cyfitter_cfg.c **** 	CY_SET_XTND_REG32((void CYFAR *)CYREG_SAR_MUX_SWITCH_HW_CTRL, 0x004300C1u);
 395              		.loc 1 308 0
 396 002a 0F4A     		ldr	r2, .L16+36
 397 002c 0F4B     		ldr	r3, .L16+40
 398 002e 1A60     		str	r2, [r3]
 309:Generated_Source\PSoC4/cyfitter_cfg.c **** 	CY_SET_XTND_REG32((void CYFAR *)CYREG_PASS_DSAB_DSAB_CTRL, 0x00000000u);
 399              		.loc 1 309 0
 400 0030 0F4A     		ldr	r2, .L16+44
 401 0032 104B     		ldr	r3, .L16+48
 402 0034 1A60     		str	r2, [r3]
 310:Generated_Source\PSoC4/cyfitter_cfg.c **** 	SetAnalogRoutingPumps(1);
 403              		.loc 1 310 0
 404 0036 0022     		movs	r2, #0
 405 0038 0F4B     		ldr	r3, .L16+52
 406 003a 1A60     		str	r2, [r3]
 311:Generated_Source\PSoC4/cyfitter_cfg.c **** }
 407              		.loc 1 311 0
 408 003c 0B38     		subs	r0, r0, #11
 409 003e FFF7FEFF 		bl	SetAnalogRoutingPumps
 410              	.LVL23:
 312:Generated_Source\PSoC4/cyfitter_cfg.c **** 
 411              		.loc 1 312 0
 412              		@ sp needed
 413 0042 10BD     		pop	{r4, pc}
 414              	.L17:
 415              		.align	2
 416              	.L16:
 417 0044 00003040 		.word	1076887552
 418 0048 30003040 		.word	1076887600
 419 004c 04400400 		.word	278532
 420 0050 80003040 		.word	1076887680
 421 0054 02400400 		.word	278530
 422 0058 88003040 		.word	1076887688
 423 005c C0003040 		.word	1076887744
 424 0060 30003140 		.word	1076953136
 425 0064 00003A40 		.word	1077542912
 426 0068 41804300 		.word	4423745
 427 006c 00033A40 		.word	1077543680
 428 0070 C1004300 		.word	4391105
 429 0074 40033A40 		.word	1077543744
 430 0078 000E3F40 		.word	1077874176
 431              		.cfi_endproc
 432              	.LFE6:
 433              		.size	AnalogSetDefault, .-AnalogSetDefault
 434              		.section	.psocinit
 435              		.align	2
 436              		.global	cyfitter_cfg
ARM GAS  C:\Users\becca\AppData\Local\Temp\ccJeiGmP.s 			page 15


 437              		.code	16
 438              		.thumb_func
 439              		.type	cyfitter_cfg, %function
 440              	cyfitter_cfg:
 441              	.LFB8:
 344:Generated_Source\PSoC4/cyfitter_cfg.c **** 
 345:Generated_Source\PSoC4/cyfitter_cfg.c **** 
 346:Generated_Source\PSoC4/cyfitter_cfg.c **** 
 347:Generated_Source\PSoC4/cyfitter_cfg.c **** 
 348:Generated_Source\PSoC4/cyfitter_cfg.c **** /*******************************************************************************
 349:Generated_Source\PSoC4/cyfitter_cfg.c **** * Function Name: cyfitter_cfg
 350:Generated_Source\PSoC4/cyfitter_cfg.c **** ********************************************************************************
 351:Generated_Source\PSoC4/cyfitter_cfg.c **** * Summary:
 352:Generated_Source\PSoC4/cyfitter_cfg.c **** *  This function is called by the start-up code for the selected device. It
 353:Generated_Source\PSoC4/cyfitter_cfg.c **** *  performs all of the necessary device configuration based on the design
 354:Generated_Source\PSoC4/cyfitter_cfg.c **** *  settings.  This includes settings from the Design Wide Resources (DWR) such
 355:Generated_Source\PSoC4/cyfitter_cfg.c **** *  as Clocks and Pins as well as any component configuration that is necessary.
 356:Generated_Source\PSoC4/cyfitter_cfg.c **** *
 357:Generated_Source\PSoC4/cyfitter_cfg.c **** * Parameters:
 358:Generated_Source\PSoC4/cyfitter_cfg.c **** *   void
 359:Generated_Source\PSoC4/cyfitter_cfg.c **** *
 360:Generated_Source\PSoC4/cyfitter_cfg.c **** * Return:
 361:Generated_Source\PSoC4/cyfitter_cfg.c **** *   void
 362:Generated_Source\PSoC4/cyfitter_cfg.c **** *
 363:Generated_Source\PSoC4/cyfitter_cfg.c **** *******************************************************************************/
 364:Generated_Source\PSoC4/cyfitter_cfg.c **** CY_CFG_SECTION
 365:Generated_Source\PSoC4/cyfitter_cfg.c **** void cyfitter_cfg(void)
 366:Generated_Source\PSoC4/cyfitter_cfg.c **** {
 442              		.loc 1 366 0
 443              		.cfi_startproc
 444              		@ args = 0, pretend = 0, frame = 0
 445              		@ frame_needed = 0, uses_anonymous_args = 0
 446 0140 10B5     		push	{r4, lr}
 447              		.cfi_def_cfa_offset 8
 448              		.cfi_offset 4, -8
 449              		.cfi_offset 14, -4
 367:Generated_Source\PSoC4/cyfitter_cfg.c **** 	/* Disable interrupts by default. Let user enable if/when they want. */
 368:Generated_Source\PSoC4/cyfitter_cfg.c **** 	CyGlobalIntDisable;
 450              		.loc 1 368 0
 451              		.syntax divided
 452              	@ 368 "Generated_Source\PSoC4\cyfitter_cfg.c" 1
 453 0142 72B6     		CPSID   i
 454              	@ 0 "" 2
 369:Generated_Source\PSoC4/cyfitter_cfg.c **** 
 370:Generated_Source\PSoC4/cyfitter_cfg.c **** 	/* Enable the clock in the interrupt controller for the routed interrupts */
 371:Generated_Source\PSoC4/cyfitter_cfg.c **** 	CY_SET_REG8((void *)CYREG_UDB_UDBIF_INT_CLK_CTL, 0x01u);
 455              		.loc 1 371 0
 456              		.thumb
 457              		.syntax unified
 458 0144 0122     		movs	r2, #1
 459 0146 484B     		ldr	r3, .L21
 460 0148 1A70     		strb	r2, [r3]
 461              	.LVL24:
 462              	.LBB3:
 372:Generated_Source\PSoC4/cyfitter_cfg.c **** 	{
 373:Generated_Source\PSoC4/cyfitter_cfg.c **** 		static const uint32 CYCODE cy_cfg_addr_table[] = {
 374:Generated_Source\PSoC4/cyfitter_cfg.c **** 			0x400F3204u, /* Base address: 0x400F3200 Count: 4 */
ARM GAS  C:\Users\becca\AppData\Local\Temp\ccJeiGmP.s 			page 16


 375:Generated_Source\PSoC4/cyfitter_cfg.c **** 			0x400F3304u, /* Base address: 0x400F3300 Count: 4 */
 376:Generated_Source\PSoC4/cyfitter_cfg.c **** 			0x400F4006u, /* Base address: 0x400F4000 Count: 6 */
 377:Generated_Source\PSoC4/cyfitter_cfg.c **** 			0x400F4103u, /* Base address: 0x400F4100 Count: 3 */
 378:Generated_Source\PSoC4/cyfitter_cfg.c **** 			0x400F4203u, /* Base address: 0x400F4200 Count: 3 */
 379:Generated_Source\PSoC4/cyfitter_cfg.c **** 			0x400F4306u, /* Base address: 0x400F4300 Count: 6 */
 380:Generated_Source\PSoC4/cyfitter_cfg.c **** 			0x400F6002u, /* Base address: 0x400F6000 Count: 2 */
 381:Generated_Source\PSoC4/cyfitter_cfg.c **** 		};
 382:Generated_Source\PSoC4/cyfitter_cfg.c **** 
 383:Generated_Source\PSoC4/cyfitter_cfg.c **** 		static const cy_cfg_addrvalue_t CYCODE cy_cfg_data_table[] = {
 384:Generated_Source\PSoC4/cyfitter_cfg.c **** 			{0x38u, 0x22u},
 385:Generated_Source\PSoC4/cyfitter_cfg.c **** 			{0x3Eu, 0x11u},
 386:Generated_Source\PSoC4/cyfitter_cfg.c **** 			{0x58u, 0x04u},
 387:Generated_Source\PSoC4/cyfitter_cfg.c **** 			{0x5Fu, 0x01u},
 388:Generated_Source\PSoC4/cyfitter_cfg.c **** 			{0x1Cu, 0x40u},
 389:Generated_Source\PSoC4/cyfitter_cfg.c **** 			{0x1Du, 0x20u},
 390:Generated_Source\PSoC4/cyfitter_cfg.c **** 			{0x89u, 0x20u},
 391:Generated_Source\PSoC4/cyfitter_cfg.c **** 			{0x8Cu, 0x40u},
 392:Generated_Source\PSoC4/cyfitter_cfg.c **** 			{0x0Bu, 0x80u},
 393:Generated_Source\PSoC4/cyfitter_cfg.c **** 			{0x2Fu, 0x80u},
 394:Generated_Source\PSoC4/cyfitter_cfg.c **** 			{0x6Fu, 0x80u},
 395:Generated_Source\PSoC4/cyfitter_cfg.c **** 			{0xC2u, 0x10u},
 396:Generated_Source\PSoC4/cyfitter_cfg.c **** 			{0xCAu, 0x80u},
 397:Generated_Source\PSoC4/cyfitter_cfg.c **** 			{0xDCu, 0x40u},
 398:Generated_Source\PSoC4/cyfitter_cfg.c **** 			{0x4Bu, 0x80u},
 399:Generated_Source\PSoC4/cyfitter_cfg.c **** 			{0x93u, 0x80u},
 400:Generated_Source\PSoC4/cyfitter_cfg.c **** 			{0xD2u, 0x10u},
 401:Generated_Source\PSoC4/cyfitter_cfg.c **** 			{0x70u, 0x01u},
 402:Generated_Source\PSoC4/cyfitter_cfg.c **** 			{0x74u, 0x10u},
 403:Generated_Source\PSoC4/cyfitter_cfg.c **** 			{0xDCu, 0x03u},
 404:Generated_Source\PSoC4/cyfitter_cfg.c **** 			{0x88u, 0x10u},
 405:Generated_Source\PSoC4/cyfitter_cfg.c **** 			{0x8Cu, 0x01u},
 406:Generated_Source\PSoC4/cyfitter_cfg.c **** 			{0x94u, 0x02u},
 407:Generated_Source\PSoC4/cyfitter_cfg.c **** 			{0xA4u, 0x10u},
 408:Generated_Source\PSoC4/cyfitter_cfg.c **** 			{0xE0u, 0x02u},
 409:Generated_Source\PSoC4/cyfitter_cfg.c **** 			{0xE4u, 0x01u},
 410:Generated_Source\PSoC4/cyfitter_cfg.c **** 			{0x02u, 0x01u},
 411:Generated_Source\PSoC4/cyfitter_cfg.c **** 			{0x11u, 0x01u},
 412:Generated_Source\PSoC4/cyfitter_cfg.c **** 		};
 413:Generated_Source\PSoC4/cyfitter_cfg.c **** 
 414:Generated_Source\PSoC4/cyfitter_cfg.c **** 
 415:Generated_Source\PSoC4/cyfitter_cfg.c **** 
 416:Generated_Source\PSoC4/cyfitter_cfg.c **** 		CYPACKED typedef struct {
 417:Generated_Source\PSoC4/cyfitter_cfg.c **** 			void CYFAR *address;
 418:Generated_Source\PSoC4/cyfitter_cfg.c **** 			uint16 size;
 419:Generated_Source\PSoC4/cyfitter_cfg.c **** 		} CYPACKED_ATTR cfg_memset_t;
 420:Generated_Source\PSoC4/cyfitter_cfg.c **** 
 421:Generated_Source\PSoC4/cyfitter_cfg.c **** 		static const cfg_memset_t CYCODE cfg_memset_list[] = {
 422:Generated_Source\PSoC4/cyfitter_cfg.c **** 			/* address, size */
 423:Generated_Source\PSoC4/cyfitter_cfg.c **** 			{(void CYFAR *)(CYDEV_UDB_P0_U0_BASE), 1024u},
 424:Generated_Source\PSoC4/cyfitter_cfg.c **** 			{(void CYFAR *)(CYDEV_UDB_DSI0_BASE), 1024u},
 425:Generated_Source\PSoC4/cyfitter_cfg.c **** 		};
 426:Generated_Source\PSoC4/cyfitter_cfg.c **** 
 427:Generated_Source\PSoC4/cyfitter_cfg.c **** 		uint8 CYDATA i;
 428:Generated_Source\PSoC4/cyfitter_cfg.c **** 
 429:Generated_Source\PSoC4/cyfitter_cfg.c **** 		/* Zero out critical memory blocks before beginning configuration */
 430:Generated_Source\PSoC4/cyfitter_cfg.c **** 		for (i = 0u; i < (sizeof(cfg_memset_list)/sizeof(cfg_memset_list[0])); i++)
 463              		.loc 1 430 0
ARM GAS  C:\Users\becca\AppData\Local\Temp\ccJeiGmP.s 			page 17


 464 014a 0024     		movs	r4, #0
 465 014c 0FE0     		b	.L19
 466              	.LVL25:
 467              	.L20:
 468              	.LBB4:
 431:Generated_Source\PSoC4/cyfitter_cfg.c **** 		{
 432:Generated_Source\PSoC4/cyfitter_cfg.c **** 			const cfg_memset_t CYCODE * CYDATA ms = &cfg_memset_list[i];
 433:Generated_Source\PSoC4/cyfitter_cfg.c **** 			CYMEMZERO(ms->address, (size_t)(uint32)(ms->size));
 469              		.loc 1 433 0 discriminator 3
 470 014e 4748     		ldr	r0, .L21+4
 471 0150 6200     		lsls	r2, r4, #1
 472 0152 1319     		adds	r3, r2, r4
 473 0154 5900     		lsls	r1, r3, #1
 474 0156 0B00     		movs	r3, r1
 475 0158 4118     		adds	r1, r0, r1
 476 015a 8988     		ldrh	r1, [r1, #4]
 477 015c 1A5A     		ldrh	r2, [r3, r0]
 478 015e C318     		adds	r3, r0, r3
 479 0160 5888     		ldrh	r0, [r3, #2]
 480 0162 0004     		lsls	r0, r0, #16
 481 0164 1043     		orrs	r0, r2
 482 0166 FFF7FEFF 		bl	CYMEMZERO
 483              	.LVL26:
 484              	.LBE4:
 430:Generated_Source\PSoC4/cyfitter_cfg.c **** 		{
 485              		.loc 1 430 0 discriminator 3
 486 016a 0134     		adds	r4, r4, #1
 487              	.LVL27:
 488 016c E4B2     		uxtb	r4, r4
 489              	.LVL28:
 490              	.L19:
 430:Generated_Source\PSoC4/cyfitter_cfg.c **** 		{
 491              		.loc 1 430 0 is_stmt 0 discriminator 1
 492 016e 012C     		cmp	r4, #1
 493 0170 EDD9     		bls	.L20
 434:Generated_Source\PSoC4/cyfitter_cfg.c **** 		}
 435:Generated_Source\PSoC4/cyfitter_cfg.c **** 
 436:Generated_Source\PSoC4/cyfitter_cfg.c **** 		cfg_write_bytes32(cy_cfg_addr_table, cy_cfg_data_table);
 494              		.loc 1 436 0 is_stmt 1
 495 0172 3E48     		ldr	r0, .L21+4
 496 0174 0100     		movs	r1, r0
 497 0176 0C31     		adds	r1, r1, #12
 498 0178 4430     		adds	r0, r0, #68
 499 017a FFF7FEFF 		bl	cfg_write_bytes32
 500              	.LVL29:
 437:Generated_Source\PSoC4/cyfitter_cfg.c **** 
 438:Generated_Source\PSoC4/cyfitter_cfg.c **** 		/* HSIOM Starting address: CYDEV_HSIOM_BASE */
 439:Generated_Source\PSoC4/cyfitter_cfg.c **** 		CY_SET_REG32((void *)(CYREG_HSIOM_PORT_SEL1), 0x0000FFF0u);
 501              		.loc 1 439 0
 502 017e 3C4A     		ldr	r2, .L21+8
 503 0180 3C4B     		ldr	r3, .L21+12
 504 0182 1A60     		str	r2, [r3]
 440:Generated_Source\PSoC4/cyfitter_cfg.c **** 		CY_SET_REG32((void *)(CYREG_HSIOM_PORT_SEL2), 0x00080000u);
 505              		.loc 1 440 0
 506 0184 8022     		movs	r2, #128
 507 0186 1203     		lsls	r2, r2, #12
 508 0188 3B4B     		ldr	r3, .L21+16
ARM GAS  C:\Users\becca\AppData\Local\Temp\ccJeiGmP.s 			page 18


 509 018a 1A60     		str	r2, [r3]
 441:Generated_Source\PSoC4/cyfitter_cfg.c **** 		CY_SET_REG32((void *)(CYREG_HSIOM_PORT_SEL3), 0x0808EEEEu);
 510              		.loc 1 441 0
 511 018c 3B4A     		ldr	r2, .L21+20
 512 018e 3C4B     		ldr	r3, .L21+24
 513 0190 1A60     		str	r2, [r3]
 442:Generated_Source\PSoC4/cyfitter_cfg.c **** 		CY_SET_REG32((void *)(CYREG_HSIOM_PORT_SEL4), 0x0000000Fu);
 514              		.loc 1 442 0
 515 0192 0F21     		movs	r1, #15
 516 0194 3B4B     		ldr	r3, .L21+28
 517 0196 1960     		str	r1, [r3]
 443:Generated_Source\PSoC4/cyfitter_cfg.c **** 		CY_SET_REG32((void *)(CYREG_HSIOM_PORT_SEL7), 0x00000099u);
 518              		.loc 1 443 0
 519 0198 9922     		movs	r2, #153
 520 019a 3B4B     		ldr	r3, .L21+32
 521 019c 1A60     		str	r2, [r3]
 444:Generated_Source\PSoC4/cyfitter_cfg.c **** 
 445:Generated_Source\PSoC4/cyfitter_cfg.c **** 		/* UDB_PA_0 Starting address: CYDEV_UDB_PA0_BASE */
 446:Generated_Source\PSoC4/cyfitter_cfg.c **** 		CY_SET_REG32((void *)(CYDEV_UDB_PA0_BASE), 0x00990004u);
 522              		.loc 1 446 0
 523 019e 3B4A     		ldr	r2, .L21+36
 524 01a0 3B4B     		ldr	r3, .L21+40
 525 01a2 1A60     		str	r2, [r3]
 447:Generated_Source\PSoC4/cyfitter_cfg.c **** 		CY_SET_REG32((void *)(CYREG_UDB_PA0_CFG4), 0x02000000u);
 526              		.loc 1 447 0
 527 01a4 8022     		movs	r2, #128
 528 01a6 9204     		lsls	r2, r2, #18
 529 01a8 3A4B     		ldr	r3, .L21+44
 530 01aa 1A60     		str	r2, [r3]
 448:Generated_Source\PSoC4/cyfitter_cfg.c **** 
 449:Generated_Source\PSoC4/cyfitter_cfg.c **** 		/* UDB_PA_1 Starting address: CYDEV_UDB_PA1_BASE */
 450:Generated_Source\PSoC4/cyfitter_cfg.c **** 		CY_SET_REG32((void *)(CYDEV_UDB_PA1_BASE), 0x00990000u);
 531              		.loc 1 450 0
 532 01ac 9923     		movs	r3, #153
 533 01ae 1B04     		lsls	r3, r3, #16
 534 01b0 394A     		ldr	r2, .L21+48
 535 01b2 1360     		str	r3, [r2]
 451:Generated_Source\PSoC4/cyfitter_cfg.c **** 
 452:Generated_Source\PSoC4/cyfitter_cfg.c **** 		/* UDB_PA_2 Starting address: CYDEV_UDB_PA2_BASE */
 453:Generated_Source\PSoC4/cyfitter_cfg.c **** 		CY_SET_REG32((void *)(CYDEV_UDB_PA2_BASE), 0x00990000u);
 536              		.loc 1 453 0
 537 01b4 394A     		ldr	r2, .L21+52
 538 01b6 1360     		str	r3, [r2]
 454:Generated_Source\PSoC4/cyfitter_cfg.c **** 
 455:Generated_Source\PSoC4/cyfitter_cfg.c **** 		/* UDB_PA_3 Starting address: CYDEV_UDB_PA3_BASE */
 456:Generated_Source\PSoC4/cyfitter_cfg.c **** 		CY_SET_REG32((void *)(CYDEV_UDB_PA3_BASE), 0x00990000u);
 539              		.loc 1 456 0
 540 01b8 394A     		ldr	r2, .L21+56
 541 01ba 1360     		str	r3, [r2]
 457:Generated_Source\PSoC4/cyfitter_cfg.c **** 
 458:Generated_Source\PSoC4/cyfitter_cfg.c **** 		/* TCPWM_CNT1 Starting address: CYDEV_TCPWM_CNT1_TR_CTRL0 */
 459:Generated_Source\PSoC4/cyfitter_cfg.c **** 		CY_SET_REG32((void *)(CYREG_TCPWM_CNT1_TR_CTRL0), 0x000EEE10u);
 542              		.loc 1 459 0
 543 01bc 394A     		ldr	r2, .L21+60
 544 01be 3A4B     		ldr	r3, .L21+64
 545 01c0 1A60     		str	r2, [r3]
 460:Generated_Source\PSoC4/cyfitter_cfg.c **** 
ARM GAS  C:\Users\becca\AppData\Local\Temp\ccJeiGmP.s 			page 19


 461:Generated_Source\PSoC4/cyfitter_cfg.c **** 		/* INT_SELECT Starting address: CYDEV_CPUSS_INT_SEL */
 462:Generated_Source\PSoC4/cyfitter_cfg.c **** 		CY_SET_REG32((void *)(CYREG_CPUSS_INT_SEL), 0x00000008u);
 546              		.loc 1 462 0
 547 01c2 0820     		movs	r0, #8
 548 01c4 394B     		ldr	r3, .L21+68
 549 01c6 1860     		str	r0, [r3]
 463:Generated_Source\PSoC4/cyfitter_cfg.c **** 
 464:Generated_Source\PSoC4/cyfitter_cfg.c **** 		/* Enable UDB array and digital routing */
 465:Generated_Source\PSoC4/cyfitter_cfg.c **** 		CY_SET_XTND_REG8((void *)CYREG_UDB_UDBIF_WAIT_CFG, (uint8)((CY_GET_XTND_REG8((void *)CYREG_UDB_UD
 550              		.loc 1 465 0
 551 01c8 394C     		ldr	r4, .L21+72
 552              	.LVL30:
 553 01ca 2378     		ldrb	r3, [r4]
 554 01cc 3C22     		movs	r2, #60
 555 01ce 9343     		bics	r3, r2
 556 01d0 1422     		movs	r2, #20
 557 01d2 1343     		orrs	r3, r2
 558 01d4 DBB2     		uxtb	r3, r3
 559 01d6 2370     		strb	r3, [r4]
 466:Generated_Source\PSoC4/cyfitter_cfg.c **** 		CY_SET_XTND_REG8((void *)CYREG_UDB_UDBIF_BANK_CTL, (uint8)(CY_GET_XTND_REG8((void *)CYREG_UDB_UDB
 560              		.loc 1 466 0
 561 01d8 364A     		ldr	r2, .L21+76
 562 01da 1478     		ldrb	r4, [r2]
 563 01dc 1623     		movs	r3, #22
 564 01de 2343     		orrs	r3, r4
 565 01e0 DBB2     		uxtb	r3, r3
 566 01e2 1370     		strb	r3, [r2]
 567              	.LBE3:
 467:Generated_Source\PSoC4/cyfitter_cfg.c **** 	}
 468:Generated_Source\PSoC4/cyfitter_cfg.c **** 
 469:Generated_Source\PSoC4/cyfitter_cfg.c **** 	/* Perform second pass device configuration. These items must be configured in specific order afte
 470:Generated_Source\PSoC4/cyfitter_cfg.c **** 	/* IOPINS0_0 Starting address: CYDEV_GPIO_PRT0_BASE */
 471:Generated_Source\PSoC4/cyfitter_cfg.c **** 	CY_SET_REG32((void *)(CYDEV_GPIO_PRT0_BASE), 0x0000000Fu);
 568              		.loc 1 471 0
 569 01e4 344B     		ldr	r3, .L21+80
 570 01e6 1960     		str	r1, [r3]
 472:Generated_Source\PSoC4/cyfitter_cfg.c **** 	CY_SET_REG32((void *)(CYREG_GPIO_PRT0_PC), 0x00D89000u);
 571              		.loc 1 472 0
 572 01e8 344A     		ldr	r2, .L21+84
 573 01ea 354B     		ldr	r3, .L21+88
 574 01ec 1A60     		str	r2, [r3]
 473:Generated_Source\PSoC4/cyfitter_cfg.c **** 	CY_SET_REG32((void *)(CYREG_GPIO_PRT0_INTR_CFG), 0x00000800u);
 575              		.loc 1 473 0
 576 01ee 8022     		movs	r2, #128
 577 01f0 1201     		lsls	r2, r2, #4
 578 01f2 344B     		ldr	r3, .L21+92
 579 01f4 1A60     		str	r2, [r3]
 474:Generated_Source\PSoC4/cyfitter_cfg.c **** 	CY_SET_REG32((void *)(CYREG_GPIO_PRT0_PC2), 0x0000000Fu);
 580              		.loc 1 474 0
 581 01f6 344B     		ldr	r3, .L21+96
 582 01f8 1960     		str	r1, [r3]
 475:Generated_Source\PSoC4/cyfitter_cfg.c **** 
 476:Generated_Source\PSoC4/cyfitter_cfg.c **** 	/* IOPINS0_1 Starting address: CYDEV_GPIO_PRT1_BASE */
 477:Generated_Source\PSoC4/cyfitter_cfg.c **** 	CY_SET_REG32((void *)(CYDEV_GPIO_PRT1_BASE), 0x00000023u);
 583              		.loc 1 477 0
 584 01fa 2323     		movs	r3, #35
 585 01fc 334A     		ldr	r2, .L21+100
ARM GAS  C:\Users\becca\AppData\Local\Temp\ccJeiGmP.s 			page 20


 586 01fe 1360     		str	r3, [r2]
 478:Generated_Source\PSoC4/cyfitter_cfg.c **** 	CY_SET_REG32((void *)(CYREG_GPIO_PRT1_PC), 0x00001270u);
 587              		.loc 1 478 0
 588 0200 3349     		ldr	r1, .L21+104
 589 0202 344A     		ldr	r2, .L21+108
 590 0204 1160     		str	r1, [r2]
 479:Generated_Source\PSoC4/cyfitter_cfg.c **** 	CY_SET_REG32((void *)(CYREG_GPIO_PRT1_INTR_CFG), 0x00000200u);
 591              		.loc 1 479 0
 592 0206 8021     		movs	r1, #128
 593 0208 8900     		lsls	r1, r1, #2
 594 020a 334A     		ldr	r2, .L21+112
 595 020c 1160     		str	r1, [r2]
 480:Generated_Source\PSoC4/cyfitter_cfg.c **** 	CY_SET_REG32((void *)(CYREG_GPIO_PRT1_PC2), 0x00000023u);
 596              		.loc 1 480 0
 597 020e 334A     		ldr	r2, .L21+116
 598 0210 1360     		str	r3, [r2]
 481:Generated_Source\PSoC4/cyfitter_cfg.c **** 
 482:Generated_Source\PSoC4/cyfitter_cfg.c **** 	/* IOPINS0_2 Starting address: CYDEV_GPIO_PRT2_BASE */
 483:Generated_Source\PSoC4/cyfitter_cfg.c **** 	CY_SET_REG32((void *)(CYDEV_GPIO_PRT2_BASE), 0x000000D3u);
 599              		.loc 1 483 0
 600 0212 D322     		movs	r2, #211
 601 0214 324B     		ldr	r3, .L21+120
 602 0216 1A60     		str	r2, [r3]
 484:Generated_Source\PSoC4/cyfitter_cfg.c **** 	CY_SET_REG32((void *)(CYREG_GPIO_PRT2_PC), 0x00006010u);
 603              		.loc 1 484 0
 604 0218 324A     		ldr	r2, .L21+124
 605 021a 334B     		ldr	r3, .L21+128
 606 021c 1A60     		str	r2, [r3]
 485:Generated_Source\PSoC4/cyfitter_cfg.c **** 	CY_SET_REG32((void *)(CYREG_GPIO_PRT2_INTR_CFG), 0x00000008u);
 607              		.loc 1 485 0
 608 021e 334B     		ldr	r3, .L21+132
 609 0220 1860     		str	r0, [r3]
 486:Generated_Source\PSoC4/cyfitter_cfg.c **** 	CY_SET_REG32((void *)(CYREG_GPIO_PRT2_PC2), 0x000000C1u);
 610              		.loc 1 486 0
 611 0222 C122     		movs	r2, #193
 612 0224 324B     		ldr	r3, .L21+136
 613 0226 1A60     		str	r2, [r3]
 487:Generated_Source\PSoC4/cyfitter_cfg.c **** 
 488:Generated_Source\PSoC4/cyfitter_cfg.c **** 	/* IOPINS0_3 Starting address: CYDEV_GPIO_PRT3_BASE */
 489:Generated_Source\PSoC4/cyfitter_cfg.c **** 	CY_SET_REG32((void *)(CYDEV_GPIO_PRT3_BASE), 0x00000053u);
 614              		.loc 1 489 0
 615 0228 6E3A     		subs	r2, r2, #110
 616 022a 324B     		ldr	r3, .L21+140
 617 022c 1A60     		str	r2, [r3]
 490:Generated_Source\PSoC4/cyfitter_cfg.c **** 	CY_SET_REG32((void *)(CYREG_GPIO_PRT3_PC), 0x00186DA4u);
 618              		.loc 1 490 0
 619 022e 324A     		ldr	r2, .L21+144
 620 0230 324B     		ldr	r3, .L21+148
 621 0232 1A60     		str	r2, [r3]
 491:Generated_Source\PSoC4/cyfitter_cfg.c **** 
 492:Generated_Source\PSoC4/cyfitter_cfg.c **** 	/* IOPINS0_4 Starting address: CYDEV_GPIO_PRT4_BASE */
 493:Generated_Source\PSoC4/cyfitter_cfg.c **** 	CY_SET_REG32((void *)(CYDEV_GPIO_PRT4_BASE), 0x00000044u);
 622              		.loc 1 493 0
 623 0234 4422     		movs	r2, #68
 624 0236 324B     		ldr	r3, .L21+152
 625 0238 1A60     		str	r2, [r3]
 494:Generated_Source\PSoC4/cyfitter_cfg.c **** 	CY_SET_REG32((void *)(CYREG_GPIO_PRT4_PC), 0x00000001u);
ARM GAS  C:\Users\becca\AppData\Local\Temp\ccJeiGmP.s 			page 21


 626              		.loc 1 494 0
 627 023a 0123     		movs	r3, #1
 628 023c 3149     		ldr	r1, .L21+156
 629 023e 0B60     		str	r3, [r1]
 495:Generated_Source\PSoC4/cyfitter_cfg.c **** 	CY_SET_REG32((void *)(CYREG_GPIO_PRT4_PC2), 0x00000044u);
 630              		.loc 1 495 0
 631 0240 3149     		ldr	r1, .L21+160
 632 0242 0A60     		str	r2, [r1]
 496:Generated_Source\PSoC4/cyfitter_cfg.c **** 
 497:Generated_Source\PSoC4/cyfitter_cfg.c **** 	/* IOPINS0_6 Starting address: CYDEV_GPIO_PRT6_BASE */
 498:Generated_Source\PSoC4/cyfitter_cfg.c **** 	CY_SET_REG32((void *)(CYDEV_GPIO_PRT6_BASE), 0x00000001u);
 633              		.loc 1 498 0
 634 0244 314A     		ldr	r2, .L21+164
 635 0246 1360     		str	r3, [r2]
 499:Generated_Source\PSoC4/cyfitter_cfg.c **** 	CY_SET_REG32((void *)(CYREG_GPIO_PRT6_PC2), 0x00000001u);
 636              		.loc 1 499 0
 637 0248 314A     		ldr	r2, .L21+168
 638 024a 1360     		str	r3, [r2]
 500:Generated_Source\PSoC4/cyfitter_cfg.c **** 
 501:Generated_Source\PSoC4/cyfitter_cfg.c **** 	/* IOPINS0_7 Starting address: CYDEV_GPIO_PRT7_BASE */
 502:Generated_Source\PSoC4/cyfitter_cfg.c **** 	CY_SET_REG32((void *)(CYDEV_GPIO_PRT7_BASE), 0x00000002u);
 639              		.loc 1 502 0
 640 024c 0133     		adds	r3, r3, #1
 641 024e 314A     		ldr	r2, .L21+172
 642 0250 1360     		str	r3, [r2]
 503:Generated_Source\PSoC4/cyfitter_cfg.c **** 	CY_SET_REG32((void *)(CYREG_GPIO_PRT7_PC), 0x00000031u);
 643              		.loc 1 503 0
 644 0252 3121     		movs	r1, #49
 645 0254 304A     		ldr	r2, .L21+176
 646 0256 1160     		str	r1, [r2]
 504:Generated_Source\PSoC4/cyfitter_cfg.c **** 	CY_SET_REG32((void *)(CYREG_GPIO_PRT7_PC2), 0x00000002u);
 647              		.loc 1 504 0
 648 0258 304A     		ldr	r2, .L21+180
 649 025a 1360     		str	r3, [r2]
 505:Generated_Source\PSoC4/cyfitter_cfg.c **** 
 506:Generated_Source\PSoC4/cyfitter_cfg.c **** 
 507:Generated_Source\PSoC4/cyfitter_cfg.c **** 	/* Setup clocks based on selections from Clock DWR */
 508:Generated_Source\PSoC4/cyfitter_cfg.c **** 	ClockSetup();
 650              		.loc 1 508 0
 651 025c FFF7D0FE 		bl	ClockSetup
 652              	.LVL31:
 509:Generated_Source\PSoC4/cyfitter_cfg.c **** 
 510:Generated_Source\PSoC4/cyfitter_cfg.c **** 	/* Perform basic analog initialization to defaults */
 511:Generated_Source\PSoC4/cyfitter_cfg.c **** 	AnalogSetDefault();
 653              		.loc 1 511 0
 654 0260 FFF7FEFF 		bl	AnalogSetDefault
 655              	.LVL32:
 512:Generated_Source\PSoC4/cyfitter_cfg.c **** 
 513:Generated_Source\PSoC4/cyfitter_cfg.c **** }
 656              		.loc 1 513 0
 657              		@ sp needed
 658 0264 10BD     		pop	{r4, pc}
 659              	.L22:
 660 0266 C046     		.align	2
 661              	.L21:
 662 0268 1C700F40 		.word	1074753564
 663 026c 00000000 		.word	.LANCHOR0
ARM GAS  C:\Users\becca\AppData\Local\Temp\ccJeiGmP.s 			page 22


 664 0270 F0FF0000 		.word	65520
 665 0274 00010240 		.word	1073873152
 666 0278 00020240 		.word	1073873408
 667 027c EEEE0808 		.word	134803182
 668 0280 00030240 		.word	1073873664
 669 0284 00040240 		.word	1073873920
 670 0288 00070240 		.word	1073874688
 671 028c 04009900 		.word	10027012
 672 0290 00500F40 		.word	1074745344
 673 0294 04500F40 		.word	1074745348
 674 0298 10500F40 		.word	1074745360
 675 029c 20500F40 		.word	1074745376
 676 02a0 30500F40 		.word	1074745392
 677 02a4 10EE0E00 		.word	978448
 678 02a8 60012040 		.word	1075839328
 679 02ac 20001040 		.word	1074790432
 680 02b0 01700F40 		.word	1074753537
 681 02b4 00700F40 		.word	1074753536
 682 02b8 00000440 		.word	1074003968
 683 02bc 0090D800 		.word	14192640
 684 02c0 08000440 		.word	1074003976
 685 02c4 0C000440 		.word	1074003980
 686 02c8 18000440 		.word	1074003992
 687 02cc 00010440 		.word	1074004224
 688 02d0 70120000 		.word	4720
 689 02d4 08010440 		.word	1074004232
 690 02d8 0C010440 		.word	1074004236
 691 02dc 18010440 		.word	1074004248
 692 02e0 00020440 		.word	1074004480
 693 02e4 10600000 		.word	24592
 694 02e8 08020440 		.word	1074004488
 695 02ec 0C020440 		.word	1074004492
 696 02f0 18020440 		.word	1074004504
 697 02f4 00030440 		.word	1074004736
 698 02f8 A46D1800 		.word	1600932
 699 02fc 08030440 		.word	1074004744
 700 0300 00040440 		.word	1074004992
 701 0304 08040440 		.word	1074005000
 702 0308 18040440 		.word	1074005016
 703 030c 00060440 		.word	1074005504
 704 0310 18060440 		.word	1074005528
 705 0314 00070440 		.word	1074005760
 706 0318 08070440 		.word	1074005768
 707 031c 18070440 		.word	1074005784
 708              		.cfi_endproc
 709              	.LFE8:
 710              		.size	cyfitter_cfg, .-cyfitter_cfg
 711              		.section	.rodata
 712              		.align	2
 713              		.set	.LANCHOR0,. + 0
 714              		.type	cfg_memset_list.4917, %object
 715              		.size	cfg_memset_list.4917, 12
 716              	cfg_memset_list.4917:
 717 0000 00300F40 		.word	1074737152
 718 0004 0004     		.short	1024
 719 0006 00400F40 		.4byte	1074741248
 720 000a 0004     		.short	1024
ARM GAS  C:\Users\becca\AppData\Local\Temp\ccJeiGmP.s 			page 23


 721              		.type	cy_cfg_data_table.4912, %object
 722              		.size	cy_cfg_data_table.4912, 56
 723              	cy_cfg_data_table.4912:
 724 000c 38       		.byte	56
 725 000d 22       		.byte	34
 726 000e 3E       		.byte	62
 727 000f 11       		.byte	17
 728 0010 58       		.byte	88
 729 0011 04       		.byte	4
 730 0012 5F       		.byte	95
 731 0013 01       		.byte	1
 732 0014 1C       		.byte	28
 733 0015 40       		.byte	64
 734 0016 1D       		.byte	29
 735 0017 20       		.byte	32
 736 0018 89       		.byte	-119
 737 0019 20       		.byte	32
 738 001a 8C       		.byte	-116
 739 001b 40       		.byte	64
 740 001c 0B       		.byte	11
 741 001d 80       		.byte	-128
 742 001e 2F       		.byte	47
 743 001f 80       		.byte	-128
 744 0020 6F       		.byte	111
 745 0021 80       		.byte	-128
 746 0022 C2       		.byte	-62
 747 0023 10       		.byte	16
 748 0024 CA       		.byte	-54
 749 0025 80       		.byte	-128
 750 0026 DC       		.byte	-36
 751 0027 40       		.byte	64
 752 0028 4B       		.byte	75
 753 0029 80       		.byte	-128
 754 002a 93       		.byte	-109
 755 002b 80       		.byte	-128
 756 002c D2       		.byte	-46
 757 002d 10       		.byte	16
 758 002e 70       		.byte	112
 759 002f 01       		.byte	1
 760 0030 74       		.byte	116
 761 0031 10       		.byte	16
 762 0032 DC       		.byte	-36
 763 0033 03       		.byte	3
 764 0034 88       		.byte	-120
 765 0035 10       		.byte	16
 766 0036 8C       		.byte	-116
 767 0037 01       		.byte	1
 768 0038 94       		.byte	-108
 769 0039 02       		.byte	2
 770 003a A4       		.byte	-92
 771 003b 10       		.byte	16
 772 003c E0       		.byte	-32
 773 003d 02       		.byte	2
 774 003e E4       		.byte	-28
 775 003f 01       		.byte	1
 776 0040 02       		.byte	2
 777 0041 01       		.byte	1
ARM GAS  C:\Users\becca\AppData\Local\Temp\ccJeiGmP.s 			page 24


 778 0042 11       		.byte	17
 779 0043 01       		.byte	1
 780              		.type	cy_cfg_addr_table.4911, %object
 781              		.size	cy_cfg_addr_table.4911, 28
 782              	cy_cfg_addr_table.4911:
 783 0044 04320F40 		.word	1074737668
 784 0048 04330F40 		.word	1074737924
 785 004c 06400F40 		.word	1074741254
 786 0050 03410F40 		.word	1074741507
 787 0054 03420F40 		.word	1074741763
 788 0058 06430F40 		.word	1074742022
 789 005c 02600F40 		.word	1074749442
 790              		.text
 791              	.Letext0:
 792              		.file 2 "c:\\program files (x86)\\cypress\\psoc creator\\4.4\\psoc creator\\import\\gnu\\arm\\5.4.
 793              		.file 3 "Generated_Source\\PSoC4\\cytypes.h"
 794              		.file 4 "Generated_Source\\PSoC4\\CyLib.h"