ARM GAS  C:\Users\becca\AppData\Local\Temp\ccqvS2K0.s 			page 1


   1              		.syntax unified
   2              		.cpu cortex-m0
   3              		.fpu softvfp
   4              		.eabi_attribute 20, 1
   5              		.eabi_attribute 21, 1
   6              		.eabi_attribute 23, 3
   7              		.eabi_attribute 24, 1
   8              		.eabi_attribute 25, 1
   9              		.eabi_attribute 26, 1
  10              		.eabi_attribute 30, 1
  11              		.eabi_attribute 34, 0
  12              		.eabi_attribute 18, 4
  13              		.thumb
  14              		.syntax unified
  15              		.file	"library.c"
  16              		.text
  17              	.Ltext0:
  18              		.cfi_sections	.debug_frame
  19              		.section	.text.writeCommand,"ax",%progbits
  20              		.align	2
  21              		.code	16
  22              		.thumb_func
  23              		.type	writeCommand, %function
  24              	writeCommand:
  25              	.LFB35:
  26              		.file 1 "library.c"
   1:library.c     **** #include <project.h>
   2:library.c     **** #include <math.h>
   3:library.c     **** #include <library.h>
   4:library.c     **** #include <I2C.h>
   5:library.c     **** 
   6:library.c     **** // CRC-8 calculation for SHT31 (Polynomial 0x31)
   7:library.c     **** static uint8_t crc8(const uint8_t *data, int len) {
   8:library.c     ****     const uint8_t POLYNOMIAL = 0x31;
   9:library.c     ****     uint8_t crc = 0xFF;
  10:library.c     **** 
  11:library.c     ****     for (int j = 0; j < len; ++j) {
  12:library.c     ****         crc ^= data[j];
  13:library.c     ****         for (int i = 0; i < 8; ++i) {
  14:library.c     ****             crc = (crc & 0x80) ? (crc << 1) ^ POLYNOMIAL : (crc << 1);
  15:library.c     ****         }
  16:library.c     ****     }
  17:library.c     ****     return crc;
  18:library.c     **** }
  19:library.c     **** 
  20:library.c     **** static bool writeCommand(uint16_t command) {
  27              		.loc 1 20 0
  28              		.cfi_startproc
  29              		@ args = 0, pretend = 0, frame = 64
  30              		@ frame_needed = 0, uses_anonymous_args = 0
  31              	.LVL0:
  32 0000 70B5     		push	{r4, r5, r6, lr}
  33              		.cfi_def_cfa_offset 16
  34              		.cfi_offset 4, -16
  35              		.cfi_offset 5, -12
  36              		.cfi_offset 6, -8
  37              		.cfi_offset 14, -4
ARM GAS  C:\Users\becca\AppData\Local\Temp\ccqvS2K0.s 			page 2


  38 0002 90B0     		sub	sp, sp, #64
  39              		.cfi_def_cfa_offset 80
  21:library.c     ****     
  22:library.c     ****     uint8_t cmd[2];
  23:library.c     ****     cmd[0] = command >> 8;
  40              		.loc 1 23 0
  41 0004 060A     		lsrs	r6, r0, #8
  24:library.c     ****     cmd[1] = command & 0xFF;
  42              		.loc 1 24 0
  43 0006 C4B2     		uxtb	r4, r0
  44              	.LVL1:
  25:library.c     ****     
  26:library.c     ****     uint8_t err = 0;
  27:library.c     ****     uint8_t err2 = 0;
  28:library.c     ****     
  29:library.c     ****     // Ensure bus is free (clear any old errors)
  30:library.c     ****     I2C_I2CMasterClearStatus();
  45              		.loc 1 30 0
  46 0008 FFF7FEFF 		bl	I2C_I2CMasterClearStatus
  47              	.LVL2:
  31:library.c     **** 
  32:library.c     ****     // 1) Send a true START for the first byte
  33:library.c     ****     err = I2C_I2CMasterSendStart(SHT31_I2C_ADDR, I2C_I2C_WRITE_XFER_MODE, TIMEOUT);
  48              		.loc 1 33 0
  49 000c 1422     		movs	r2, #20
  50 000e 0021     		movs	r1, #0
  51 0010 4420     		movs	r0, #68
  52 0012 FFF7FEFF 		bl	I2C_I2CMasterSendStart
  53              	.LVL3:
  54 0016 0500     		movs	r5, r0
  55 0018 C3B2     		uxtb	r3, r0
  56              	.LVL4:
  34:library.c     ****     
  35:library.c     ****     char buffer[64];
  36:library.c     ****     
  37:library.c     ****     if(err != I2C_I2C_MSTR_NO_ERROR){
  57              		.loc 1 37 0
  58 001a 002B     		cmp	r3, #0
  59 001c 0BD0     		beq	.L2
  60              	.LBB2:
  38:library.c     ****         UART_UartPutString("Error with write Command sendStart\r\n");
  61              		.loc 1 38 0
  62 001e 1E48     		ldr	r0, .L7
  63 0020 FFF7FEFF 		bl	UART_UartPutString
  64              	.LVL5:
  39:library.c     ****         sprintf(buffer, "err = %d\n", err);
  65              		.loc 1 39 0
  66 0024 FF22     		movs	r2, #255
  67 0026 2A40     		ands	r2, r5
  68 0028 1C49     		ldr	r1, .L7+4
  69 002a 6846     		mov	r0, sp
  70 002c FFF7FEFF 		bl	sprintf
  71              	.LVL6:
  40:library.c     ****         UART_UartPutString(buffer);
  72              		.loc 1 40 0
  73 0030 6846     		mov	r0, sp
  74 0032 FFF7FEFF 		bl	UART_UartPutString
ARM GAS  C:\Users\becca\AppData\Local\Temp\ccqvS2K0.s 			page 3


  75              	.LVL7:
  76              	.L2:
  77              	.LBE2:
  41:library.c     ****         
  42:library.c     ****     }
  43:library.c     ****     
  44:library.c     ****     err = I2C_I2CMasterWriteByte(cmd[0], TIMEOUT);
  78              		.loc 1 44 0
  79 0036 1421     		movs	r1, #20
  80 0038 3000     		movs	r0, r6
  81 003a FFF7FEFF 		bl	I2C_I2CMasterWriteByte
  82              	.LVL8:
  83 003e 0500     		movs	r5, r0
  84 0040 C6B2     		uxtb	r6, r0
  85              	.LVL9:
  45:library.c     ****     
  46:library.c     ****     
  47:library.c     ****     err2 = I2C_I2CMasterWriteByte(cmd[1], TIMEOUT);
  86              		.loc 1 47 0
  87 0042 1421     		movs	r1, #20
  88 0044 2000     		movs	r0, r4
  89 0046 FFF7FEFF 		bl	I2C_I2CMasterWriteByte
  90              	.LVL10:
  91 004a C4B2     		uxtb	r4, r0
  92              	.LVL11:
  48:library.c     ****     
  49:library.c     **** 
  50:library.c     ****     if(err != I2C_I2C_MSTR_NO_ERROR){
  93              		.loc 1 50 0
  94 004c 002E     		cmp	r6, #0
  95 004e 0BD0     		beq	.L3
  96              	.LBB3:
  51:library.c     ****         UART_UartPutString("Error with writeCommand: writeByte\r\n");
  97              		.loc 1 51 0
  98 0050 1348     		ldr	r0, .L7+8
  99 0052 FFF7FEFF 		bl	UART_UartPutString
 100              	.LVL12:
  52:library.c     ****         sprintf(buffer, "err = %d\n", err);
 101              		.loc 1 52 0
 102 0056 FF22     		movs	r2, #255
 103 0058 2A40     		ands	r2, r5
 104 005a 1049     		ldr	r1, .L7+4
 105 005c 6846     		mov	r0, sp
 106 005e FFF7FEFF 		bl	sprintf
 107              	.LVL13:
  53:library.c     ****         UART_UartPutString(buffer);
 108              		.loc 1 53 0
 109 0062 6846     		mov	r0, sp
 110 0064 FFF7FEFF 		bl	UART_UartPutString
 111              	.LVL14:
 112              	.L3:
 113              	.LBE3:
  54:library.c     ****     }
  55:library.c     ****         if(err2 != I2C_I2C_MSTR_NO_ERROR){
 114              		.loc 1 55 0
 115 0068 002C     		cmp	r4, #0
 116 006a 0BD0     		beq	.L4
ARM GAS  C:\Users\becca\AppData\Local\Temp\ccqvS2K0.s 			page 4


 117              	.LBB4:
  56:library.c     ****         UART_UartPutString("Error with writeCommand: writeByte2\r\n");
 118              		.loc 1 56 0
 119 006c 0D48     		ldr	r0, .L7+12
 120 006e FFF7FEFF 		bl	UART_UartPutString
 121              	.LVL15:
  57:library.c     ****         sprintf(buffer, "err = %d\n", err);
 122              		.loc 1 57 0
 123 0072 FF22     		movs	r2, #255
 124 0074 2A40     		ands	r2, r5
 125 0076 0949     		ldr	r1, .L7+4
 126 0078 6846     		mov	r0, sp
 127 007a FFF7FEFF 		bl	sprintf
 128              	.LVL16:
  58:library.c     ****         UART_UartPutString(buffer);
 129              		.loc 1 58 0
 130 007e 6846     		mov	r0, sp
 131 0080 FFF7FEFF 		bl	UART_UartPutString
 132              	.LVL17:
 133              	.L4:
 134              	.LBE4:
  59:library.c     ****     }
  60:library.c     ****         
  61:library.c     ****     if (err != I2C_I2C_MSTR_NO_ERROR)
 135              		.loc 1 61 0
 136 0084 002E     		cmp	r6, #0
 137 0086 04D1     		bne	.L6
  62:library.c     ****         return false;
  63:library.c     ****     
  64:library.c     ****     I2C_I2CMasterSendStop(TIMEOUT);
 138              		.loc 1 64 0
 139 0088 1420     		movs	r0, #20
 140 008a FFF7FEFF 		bl	I2C_I2CMasterSendStop
 141              	.LVL18:
  65:library.c     ****     
  66:library.c     ****     return true;
 142              		.loc 1 66 0
 143 008e 0120     		movs	r0, #1
 144 0090 00E0     		b	.L5
 145              	.L6:
  62:library.c     ****         return false;
 146              		.loc 1 62 0
 147 0092 0020     		movs	r0, #0
 148              	.L5:
  67:library.c     **** }
 149              		.loc 1 67 0
 150 0094 10B0     		add	sp, sp, #64
 151              		@ sp needed
 152              	.LVL19:
 153              	.LVL20:
 154 0096 70BD     		pop	{r4, r5, r6, pc}
 155              	.L8:
 156              		.align	2
 157              	.L7:
 158 0098 00000000 		.word	.LC0
 159 009c 28000000 		.word	.LC2
 160 00a0 34000000 		.word	.LC4
ARM GAS  C:\Users\becca\AppData\Local\Temp\ccqvS2K0.s 			page 5


 161 00a4 5C000000 		.word	.LC6
 162              		.cfi_endproc
 163              	.LFE35:
 164              		.size	writeCommand, .-writeCommand
 165              		.section	.text.SHT31_ReadStatus,"ax",%progbits
 166              		.align	2
 167              		.global	SHT31_ReadStatus
 168              		.code	16
 169              		.thumb_func
 170              		.type	SHT31_ReadStatus, %function
 171              	SHT31_ReadStatus:
 172              	.LFB37:
  68:library.c     **** 
  69:library.c     **** 
  70:library.c     **** bool SHT31_Init() {
  71:library.c     ****     uint8_t status = 0;
  72:library.c     ****     I2C_Start();
  73:library.c     ****     
  74:library.c     ****     
  75:library.c     ****     //status = I2C_I2CMasterSendStart(SHT31_I2C_ADDR, I2C_I2C_READ_XFER_MODE, TIMEOUT);
  76:library.c     ****     
  77:library.c     ****     writeCommand(SHT31_SOFTRESET);
  78:library.c     ****     
  79:library.c     ****     //I2C_I2CMasterSendStop(TIMEOUT);
  80:library.c     ****     
  81:library.c     ****     CyDelay(10);
  82:library.c     ****     /*
  83:library.c     ****     char buffer[64];
  84:library.c     ****     sprintf(buffer, "status = %d\t", status);
  85:library.c     ****     UART_UartPutString(buffer);
  86:library.c     ****     */
  87:library.c     ****     return (SHT31_ReadStatus() != 0xFFFF);
  88:library.c     **** }
  89:library.c     ****  //if (I2C_MasterReadBuf(SHT31_I2C_ADDR, buffer, len, I2C_MODE_COMPLETE_XFER) != I2C_MSTR_NO_ERROR)
  90:library.c     ****        // return false;
  91:library.c     **** 
  92:library.c     **** uint16_t SHT31_ReadStatus(void) {
 173              		.loc 1 92 0
 174              		.cfi_startproc
 175              		@ args = 0, pretend = 0, frame = 8
 176              		@ frame_needed = 0, uses_anonymous_args = 0
 177 0000 10B5     		push	{r4, lr}
 178              		.cfi_def_cfa_offset 8
 179              		.cfi_offset 4, -8
 180              		.cfi_offset 14, -4
 181 0002 82B0     		sub	sp, sp, #8
 182              		.cfi_def_cfa_offset 16
 183              	.LVL21:
  93:library.c     ****     uint8_t err = 0;
  94:library.c     ****     
  95:library.c     ****     if(!writeCommand(SHT31_READSTATUS)){
 184              		.loc 1 95 0
 185 0004 2148     		ldr	r0, .L13
 186 0006 FFF7FEFF 		bl	writeCommand
 187              	.LVL22:
 188 000a 0028     		cmp	r0, #0
 189 000c 02D1     		bne	.L10
ARM GAS  C:\Users\becca\AppData\Local\Temp\ccqvS2K0.s 			page 6


  96:library.c     ****         UART_UartPutString("Error with Read Status: writeCommand\r\n");
 190              		.loc 1 96 0
 191 000e 2048     		ldr	r0, .L13+4
 192 0010 FFF7FEFF 		bl	UART_UartPutString
 193              	.LVL23:
 194              	.L10:
  97:library.c     ****     }
  98:library.c     **** 
  99:library.c     ****     I2C_I2CMasterClearStatus();
 195              		.loc 1 99 0
 196 0014 FFF7FEFF 		bl	I2C_I2CMasterClearStatus
 197              	.LVL24:
 100:library.c     ****     
 101:library.c     ****     err = I2C_I2CMasterSendStart(SHT31_I2C_ADDR, I2C_I2C_READ_XFER_MODE, TIMEOUT);
 198              		.loc 1 101 0
 199 0018 1422     		movs	r2, #20
 200 001a 0121     		movs	r1, #1
 201 001c 4420     		movs	r0, #68
 202 001e FFF7FEFF 		bl	I2C_I2CMasterSendStart
 203              	.LVL25:
 204 0022 C4B2     		uxtb	r4, r0
 205              	.LVL26:
 102:library.c     ****     
 103:library.c     ****     
 104:library.c     ****     //err = I2C_I2CMasterSendRestart(SHT31_I2C_ADDR, I2C_I2C_READ_XFER_MODE, TIMEOUT);
 105:library.c     ****     
 106:library.c     ****     uint8_t data[3] = {0};
 206              		.loc 1 106 0
 207 0024 0322     		movs	r2, #3
 208 0026 0021     		movs	r1, #0
 209 0028 01A8     		add	r0, sp, #4
 210 002a FFF7FEFF 		bl	memset
 211              	.LVL27:
 107:library.c     ****     
 108:library.c     ****     if(err != I2C_I2C_MSTR_NO_ERROR){
 212              		.loc 1 108 0
 213 002e 002C     		cmp	r4, #0
 214 0030 02D0     		beq	.L11
 109:library.c     ****         UART_UartPutString("Error with Read Status: SendStart\r\n");
 215              		.loc 1 109 0
 216 0032 1848     		ldr	r0, .L13+8
 217 0034 FFF7FEFF 		bl	UART_UartPutString
 218              	.LVL28:
 219              	.L11:
 110:library.c     ****     }
 111:library.c     ****     
 112:library.c     ****     //err = I2C_I2CMasterReadBuf(SHT31_I2C_ADDR, data, 3, I2C_I2C_MODE_COMPLETE_XFER);
 113:library.c     ****     err = I2C_I2CMasterReadByte(I2C_I2C_ACK_DATA, &data[0], TIMEOUT);
 220              		.loc 1 113 0
 221 0038 1422     		movs	r2, #20
 222 003a 01A9     		add	r1, sp, #4
 223 003c 0020     		movs	r0, #0
 224 003e FFF7FEFF 		bl	I2C_I2CMasterReadByte
 225              	.LVL29:
 114:library.c     ****     CyDelay(50);
 226              		.loc 1 114 0
 227 0042 3220     		movs	r0, #50
ARM GAS  C:\Users\becca\AppData\Local\Temp\ccqvS2K0.s 			page 7


 228 0044 FFF7FEFF 		bl	CyDelay
 229              	.LVL30:
 115:library.c     ****     err = I2C_I2CMasterReadByte(I2C_I2C_ACK_DATA, &data[1], TIMEOUT);
 230              		.loc 1 115 0
 231 0048 1422     		movs	r2, #20
 232 004a 6B46     		mov	r3, sp
 233 004c 591D     		adds	r1, r3, #5
 234 004e 0020     		movs	r0, #0
 235 0050 FFF7FEFF 		bl	I2C_I2CMasterReadByte
 236              	.LVL31:
 116:library.c     ****     CyDelay(50);
 237              		.loc 1 116 0
 238 0054 3220     		movs	r0, #50
 239 0056 FFF7FEFF 		bl	CyDelay
 240              	.LVL32:
 117:library.c     ****     err = I2C_I2CMasterReadByte(I2C_I2C_NAK_DATA, &data[2], TIMEOUT);
 241              		.loc 1 117 0
 242 005a 1422     		movs	r2, #20
 243 005c 6B46     		mov	r3, sp
 244 005e 991D     		adds	r1, r3, #6
 245 0060 0120     		movs	r0, #1
 246 0062 FFF7FEFF 		bl	I2C_I2CMasterReadByte
 247              	.LVL33:
 248 0066 C4B2     		uxtb	r4, r0
 249              	.LVL34:
 118:library.c     ****     CyDelay(50);
 250              		.loc 1 118 0
 251 0068 3220     		movs	r0, #50
 252 006a FFF7FEFF 		bl	CyDelay
 253              	.LVL35:
 119:library.c     ****     
 120:library.c     ****     I2C_I2CMasterSendStop(TIMEOUT);
 254              		.loc 1 120 0
 255 006e 1420     		movs	r0, #20
 256 0070 FFF7FEFF 		bl	I2C_I2CMasterSendStop
 257              	.LVL36:
 121:library.c     ****     
 122:library.c     ****     if(err != I2C_I2C_MSTR_NO_ERROR){
 258              		.loc 1 122 0
 259 0074 002C     		cmp	r4, #0
 260 0076 02D0     		beq	.L12
 123:library.c     ****          UART_UartPutString("Error with Read Status: ReadBuf\r\n");
 261              		.loc 1 123 0
 262 0078 0748     		ldr	r0, .L13+12
 263 007a FFF7FEFF 		bl	UART_UartPutString
 264              	.LVL37:
 265              	.L12:
 124:library.c     ****     }
 125:library.c     ****     
 126:library.c     ****     uint16_t status = ((uint16_t)data[0] << 8) | data[1];
 266              		.loc 1 126 0
 267 007e 01AB     		add	r3, sp, #4
 268 0080 1878     		ldrb	r0, [r3]
 269 0082 0002     		lsls	r0, r0, #8
 270 0084 5B78     		ldrb	r3, [r3, #1]
 271 0086 1843     		orrs	r0, r3
 272              	.LVL38:
ARM GAS  C:\Users\becca\AppData\Local\Temp\ccqvS2K0.s 			page 8


 127:library.c     ****     
 128:library.c     ****     return status;
 129:library.c     **** }
 273              		.loc 1 129 0
 274 0088 02B0     		add	sp, sp, #8
 275              		@ sp needed
 276              	.LVL39:
 277 008a 10BD     		pop	{r4, pc}
 278              	.L14:
 279              		.align	2
 280              	.L13:
 281 008c 2DF30000 		.word	62253
 282 0090 84000000 		.word	.LC8
 283 0094 AC000000 		.word	.LC10
 284 0098 D0000000 		.word	.LC12
 285              		.cfi_endproc
 286              	.LFE37:
 287              		.size	SHT31_ReadStatus, .-SHT31_ReadStatus
 288              		.section	.text.SHT31_Init,"ax",%progbits
 289              		.align	2
 290              		.global	SHT31_Init
 291              		.code	16
 292              		.thumb_func
 293              		.type	SHT31_Init, %function
 294              	SHT31_Init:
 295              	.LFB36:
  70:library.c     ****     uint8_t status = 0;
 296              		.loc 1 70 0
 297              		.cfi_startproc
 298              		@ args = 0, pretend = 0, frame = 0
 299              		@ frame_needed = 0, uses_anonymous_args = 0
 300 0000 10B5     		push	{r4, lr}
 301              		.cfi_def_cfa_offset 8
 302              		.cfi_offset 4, -8
 303              		.cfi_offset 14, -4
 304              	.LVL40:
  72:library.c     ****     
 305              		.loc 1 72 0
 306 0002 FFF7FEFF 		bl	I2C_Start
 307              	.LVL41:
  77:library.c     ****     
 308              		.loc 1 77 0
 309 0006 0748     		ldr	r0, .L16
 310 0008 FFF7FEFF 		bl	writeCommand
 311              	.LVL42:
  81:library.c     ****     /*
 312              		.loc 1 81 0
 313 000c 0A20     		movs	r0, #10
 314 000e FFF7FEFF 		bl	CyDelay
 315              	.LVL43:
  87:library.c     **** }
 316              		.loc 1 87 0
 317 0012 FFF7FEFF 		bl	SHT31_ReadStatus
 318              	.LVL44:
 319 0016 044B     		ldr	r3, .L16+4
 320 0018 9C46     		mov	ip, r3
 321 001a 6044     		add	r0, r0, ip
ARM GAS  C:\Users\becca\AppData\Local\Temp\ccqvS2K0.s 			page 9


 322 001c 431E     		subs	r3, r0, #1
 323 001e 9841     		sbcs	r0, r0, r3
 324 0020 C0B2     		uxtb	r0, r0
  88:library.c     ****  //if (I2C_MasterReadBuf(SHT31_I2C_ADDR, buffer, len, I2C_MODE_COMPLETE_XFER) != I2C_MSTR_NO_ERROR)
 325              		.loc 1 88 0
 326              		@ sp needed
 327 0022 10BD     		pop	{r4, pc}
 328              	.L17:
 329              		.align	2
 330              	.L16:
 331 0024 A2300000 		.word	12450
 332 0028 0100FFFF 		.word	-65535
 333              		.cfi_endproc
 334              	.LFE36:
 335              		.size	SHT31_Init, .-SHT31_Init
 336              		.section	.text.SHT31_Reset,"ax",%progbits
 337              		.align	2
 338              		.global	SHT31_Reset
 339              		.code	16
 340              		.thumb_func
 341              		.type	SHT31_Reset, %function
 342              	SHT31_Reset:
 343              	.LFB38:
 130:library.c     **** 
 131:library.c     **** void SHT31_Reset(void) {
 344              		.loc 1 131 0
 345              		.cfi_startproc
 346              		@ args = 0, pretend = 0, frame = 0
 347              		@ frame_needed = 0, uses_anonymous_args = 0
 348 0000 10B5     		push	{r4, lr}
 349              		.cfi_def_cfa_offset 8
 350              		.cfi_offset 4, -8
 351              		.cfi_offset 14, -4
 132:library.c     ****     writeCommand(SHT31_SOFTRESET);
 352              		.loc 1 132 0
 353 0002 0348     		ldr	r0, .L19
 354 0004 FFF7FEFF 		bl	writeCommand
 355              	.LVL45:
 133:library.c     ****     CyDelay(10);
 356              		.loc 1 133 0
 357 0008 0A20     		movs	r0, #10
 358 000a FFF7FEFF 		bl	CyDelay
 359              	.LVL46:
 134:library.c     **** }
 360              		.loc 1 134 0
 361              		@ sp needed
 362 000e 10BD     		pop	{r4, pc}
 363              	.L20:
 364              		.align	2
 365              	.L19:
 366 0010 A2300000 		.word	12450
 367              		.cfi_endproc
 368              	.LFE38:
 369              		.size	SHT31_Reset, .-SHT31_Reset
 370              		.section	.text.SHT31_Heater,"ax",%progbits
 371              		.align	2
 372              		.global	SHT31_Heater
ARM GAS  C:\Users\becca\AppData\Local\Temp\ccqvS2K0.s 			page 10


 373              		.code	16
 374              		.thumb_func
 375              		.type	SHT31_Heater, %function
 376              	SHT31_Heater:
 377              	.LFB39:
 135:library.c     **** 
 136:library.c     **** void SHT31_Heater(bool enable) {
 378              		.loc 1 136 0
 379              		.cfi_startproc
 380              		@ args = 0, pretend = 0, frame = 0
 381              		@ frame_needed = 0, uses_anonymous_args = 0
 382              	.LVL47:
 383 0000 10B5     		push	{r4, lr}
 384              		.cfi_def_cfa_offset 8
 385              		.cfi_offset 4, -8
 386              		.cfi_offset 14, -4
 137:library.c     ****     writeCommand(enable ? SHT31_HEATEREN : SHT31_HEATERDIS);
 387              		.loc 1 137 0
 388 0002 0028     		cmp	r0, #0
 389 0004 01D0     		beq	.L23
 390 0006 0448     		ldr	r0, .L24
 391              	.LVL48:
 392 0008 00E0     		b	.L22
 393              	.LVL49:
 394              	.L23:
 395 000a 0448     		ldr	r0, .L24+4
 396              	.LVL50:
 397              	.L22:
 398              		.loc 1 137 0 is_stmt 0 discriminator 4
 399 000c FFF7FEFF 		bl	writeCommand
 400              	.LVL51:
 138:library.c     ****     CyDelay(1);
 401              		.loc 1 138 0 is_stmt 1 discriminator 4
 402 0010 0120     		movs	r0, #1
 403 0012 FFF7FEFF 		bl	CyDelay
 404              	.LVL52:
 139:library.c     **** }
 405              		.loc 1 139 0 discriminator 4
 406              		@ sp needed
 407 0016 10BD     		pop	{r4, pc}
 408              	.L25:
 409              		.align	2
 410              	.L24:
 411 0018 6D300000 		.word	12397
 412 001c 66300000 		.word	12390
 413              		.cfi_endproc
 414              	.LFE39:
 415              		.size	SHT31_Heater, .-SHT31_Heater
 416              		.section	.text.SHT31_IsHeaterEnabled,"ax",%progbits
 417              		.align	2
 418              		.global	SHT31_IsHeaterEnabled
 419              		.code	16
 420              		.thumb_func
 421              		.type	SHT31_IsHeaterEnabled, %function
 422              	SHT31_IsHeaterEnabled:
 423              	.LFB40:
 140:library.c     **** 
ARM GAS  C:\Users\becca\AppData\Local\Temp\ccqvS2K0.s 			page 11


 141:library.c     **** bool SHT31_IsHeaterEnabled(void) {
 424              		.loc 1 141 0
 425              		.cfi_startproc
 426              		@ args = 0, pretend = 0, frame = 0
 427              		@ frame_needed = 0, uses_anonymous_args = 0
 428 0000 10B5     		push	{r4, lr}
 429              		.cfi_def_cfa_offset 8
 430              		.cfi_offset 4, -8
 431              		.cfi_offset 14, -4
 142:library.c     ****     uint16_t reg = SHT31_ReadStatus();
 432              		.loc 1 142 0
 433 0002 FFF7FEFF 		bl	SHT31_ReadStatus
 434              	.LVL53:
 143:library.c     ****     return (reg != 0xFFFF) && (reg & (1 << SHT31_REG_HEATER_BIT));
 435              		.loc 1 143 0
 436 0006 054B     		ldr	r3, .L30
 437 0008 9842     		cmp	r0, r3
 438 000a 03D0     		beq	.L28
 439              		.loc 1 143 0 is_stmt 0 discriminator 1
 440 000c 8304     		lsls	r3, r0, #18
 441 000e 03D4     		bmi	.L29
 442              		.loc 1 143 0
 443 0010 0020     		movs	r0, #0
 444              	.LVL54:
 445 0012 02E0     		b	.L27
 446              	.LVL55:
 447              	.L28:
 448 0014 0020     		movs	r0, #0
 449              	.LVL56:
 450 0016 00E0     		b	.L27
 451              	.LVL57:
 452              	.L29:
 453 0018 0120     		movs	r0, #1
 454              	.LVL58:
 455              	.L27:
 144:library.c     **** }
 456              		.loc 1 144 0 is_stmt 1 discriminator 6
 457              		@ sp needed
 458 001a 10BD     		pop	{r4, pc}
 459              	.L31:
 460              		.align	2
 461              	.L30:
 462 001c FFFF0000 		.word	65535
 463              		.cfi_endproc
 464              	.LFE40:
 465              		.size	SHT31_IsHeaterEnabled, .-SHT31_IsHeaterEnabled
 466              		.global	__aeabi_i2f
 467              		.global	__aeabi_fdiv
 468              		.global	__aeabi_ui2f
 469              		.section	.text.SHT31_ReadTempHum,"ax",%progbits
 470              		.align	2
 471              		.global	SHT31_ReadTempHum
 472              		.code	16
 473              		.thumb_func
 474              		.type	SHT31_ReadTempHum, %function
 475              	SHT31_ReadTempHum:
 476              	.LFB41:
ARM GAS  C:\Users\becca\AppData\Local\Temp\ccqvS2K0.s 			page 12


 145:library.c     **** 
 146:library.c     **** bool SHT31_ReadTempHum(float *outTemp, float *outHum) {
 477              		.loc 1 146 0
 478              		.cfi_startproc
 479              		@ args = 0, pretend = 0, frame = 72
 480              		@ frame_needed = 0, uses_anonymous_args = 0
 481              	.LVL59:
 482 0000 F0B5     		push	{r4, r5, r6, r7, lr}
 483              		.cfi_def_cfa_offset 20
 484              		.cfi_offset 4, -20
 485              		.cfi_offset 5, -16
 486              		.cfi_offset 6, -12
 487              		.cfi_offset 7, -8
 488              		.cfi_offset 14, -4
 489 0002 4746     		mov	r7, r8
 490 0004 80B4     		push	{r7}
 491              		.cfi_def_cfa_offset 24
 492              		.cfi_offset 8, -24
 493 0006 92B0     		sub	sp, sp, #72
 494              		.cfi_def_cfa_offset 96
 495 0008 0700     		movs	r7, r0
 496 000a 0E00     		movs	r6, r1
 147:library.c     ****     uint8_t readbuffer[6] = {0};
 497              		.loc 1 147 0
 498 000c 0622     		movs	r2, #6
 499 000e 0021     		movs	r1, #0
 500              	.LVL60:
 501 0010 10A8     		add	r0, sp, #64
 502              	.LVL61:
 503 0012 FFF7FEFF 		bl	memset
 504              	.LVL62:
 148:library.c     ****     uint8_t err;
 149:library.c     ****     char buffer[64];
 150:library.c     ****     
 151:library.c     ****     CyDelay(50);
 505              		.loc 1 151 0
 506 0016 3220     		movs	r0, #50
 507 0018 FFF7FEFF 		bl	CyDelay
 508              	.LVL63:
 152:library.c     ****     
 153:library.c     ****     if (!writeCommand(SHT31_MEAS_HIGHREP)){
 509              		.loc 1 153 0
 510 001c 9020     		movs	r0, #144
 511 001e 8001     		lsls	r0, r0, #6
 512 0020 FFF7FEFF 		bl	writeCommand
 513              	.LVL64:
 514 0024 051E     		subs	r5, r0, #0
 515 0026 06D1     		bne	.L33
 154:library.c     ****         CyDelay(50);
 516              		.loc 1 154 0
 517 0028 3220     		movs	r0, #50
 518 002a FFF7FEFF 		bl	CyDelay
 519              	.LVL65:
 155:library.c     ****         UART_UartPutString("Error with Read Temp Hum: writeCommand\r\n");
 520              		.loc 1 155 0
 521 002e 3D48     		ldr	r0, .L40
 522 0030 FFF7FEFF 		bl	UART_UartPutString
ARM GAS  C:\Users\becca\AppData\Local\Temp\ccqvS2K0.s 			page 13


 523              	.LVL66:
 156:library.c     ****         return false;
 524              		.loc 1 156 0
 525 0034 71E0     		b	.L34
 526              	.L33:
 157:library.c     ****     }
 158:library.c     ****     UART_UartPutString("Ahhhhh\r\n");
 527              		.loc 1 158 0
 528 0036 3C4C     		ldr	r4, .L40+4
 529 0038 2000     		movs	r0, r4
 530 003a FFF7FEFF 		bl	UART_UartPutString
 531              	.LVL67:
 159:library.c     ****     CyDelay(50);
 532              		.loc 1 159 0
 533 003e 3220     		movs	r0, #50
 534 0040 FFF7FEFF 		bl	CyDelay
 535              	.LVL68:
 160:library.c     ****     
 161:library.c     ****     I2C_I2CMasterClearStatus();
 536              		.loc 1 161 0
 537 0044 FFF7FEFF 		bl	I2C_I2CMasterClearStatus
 538              	.LVL69:
 162:library.c     ****     
 163:library.c     ****     //for(int i = 0; i < 5; i++){
 164:library.c     ****         err = I2C_I2CMasterSendStart(SHT31_I2C_ADDR, I2C_I2C_READ_XFER_MODE, TIMEOUT);
 539              		.loc 1 164 0
 540 0048 1422     		movs	r2, #20
 541 004a 0121     		movs	r1, #1
 542 004c 4420     		movs	r0, #68
 543 004e FFF7FEFF 		bl	I2C_I2CMasterSendStart
 544              	.LVL70:
 545 0052 C3B2     		uxtb	r3, r0
 546 0054 9846     		mov	r8, r3
 547              	.LVL71:
 165:library.c     ****     UART_UartPutString("Ahhhhh\r\n");
 548              		.loc 1 165 0
 549 0056 2000     		movs	r0, r4
 550 0058 FFF7FEFF 		bl	UART_UartPutString
 551              	.LVL72:
 166:library.c     ****         CyDelay(50);
 552              		.loc 1 166 0
 553 005c 3220     		movs	r0, #50
 554 005e FFF7FEFF 		bl	CyDelay
 555              	.LVL73:
 167:library.c     ****     
 168:library.c     ****         if(err != I2C_I2C_MSTR_NO_ERROR){
 556              		.loc 1 168 0
 557 0062 4346     		mov	r3, r8
 558 0064 002B     		cmp	r3, #0
 559 0066 05D0     		beq	.L35
 169:library.c     ****             UART_UartPutString("Error with Read Temp Hum: SendStart\r\n");
 560              		.loc 1 169 0
 561 0068 3048     		ldr	r0, .L40+8
 562 006a FFF7FEFF 		bl	UART_UartPutString
 563              	.LVL74:
 170:library.c     ****             I2C_I2CMasterSendStop(TIMEOUT);
 564              		.loc 1 170 0
ARM GAS  C:\Users\becca\AppData\Local\Temp\ccqvS2K0.s 			page 14


 565 006e 1420     		movs	r0, #20
 566 0070 FFF7FEFF 		bl	I2C_I2CMasterSendStop
 567              	.LVL75:
 568              	.L35:
 146:library.c     ****     uint8_t readbuffer[6] = {0};
 569              		.loc 1 146 0 discriminator 1
 570 0074 0024     		movs	r4, #0
 571 0076 1BE0     		b	.L36
 572              	.LVL76:
 573              	.L39:
 574              	.LBB5:
 171:library.c     ****            }
 172:library.c     ****             //i = 6;
 173:library.c     **** 
 174:library.c     ****     //}
 175:library.c     ****    
 176:library.c     ****    /*
 177:library.c     ****     I2C_I2CMasterSendRestart(SHT31_I2C_ADDR, I2C_I2C_READ_XFER_MODE, TIMEOUT);
 178:library.c     ****     if(err){
 179:library.c     ****         UART_UartPutString("Error with Read Status: SendRestart\r\n");
 180:library.c     ****         I2C_I2CMasterSendStop(TIMEOUT);
 181:library.c     ****     }
 182:library.c     ****     */
 183:library.c     ****     
 184:library.c     ****     //err = I2C_I2CMasterReadBuf(SHT31_I2C_ADDR, readbuffer, 6, I2C_I2C_MODE_COMPLETE_XFER);
 185:library.c     ****     for(int i = 0; i < 6; i++){
 186:library.c     ****         CyDelay(50);
 575              		.loc 1 186 0
 576 0078 3220     		movs	r0, #50
 577 007a FFF7FEFF 		bl	CyDelay
 578              	.LVL77:
 187:library.c     ****         err = I2C_I2CMasterReadByte((i<5) ? I2C_I2C_ACK_DATA : I2C_I2C_NAK_DATA, &readbuffer[i], TI
 579              		.loc 1 187 0
 580 007e 0120     		movs	r0, #1
 581 0080 042C     		cmp	r4, #4
 582 0082 00DC     		bgt	.L37
 583 0084 0020     		movs	r0, #0
 584              	.L37:
 585 0086 C0B2     		uxtb	r0, r0
 586 0088 10AB     		add	r3, sp, #64
 587 008a 1919     		adds	r1, r3, r4
 588 008c 1422     		movs	r2, #20
 589 008e FFF7FEFF 		bl	I2C_I2CMasterReadByte
 590              	.LVL78:
 591 0092 C0B2     		uxtb	r0, r0
 592              	.LVL79:
 188:library.c     ****         if(err != I2C_I2C_MSTR_NO_ERROR){
 593              		.loc 1 188 0
 594 0094 0028     		cmp	r0, #0
 595 0096 0AD0     		beq	.L38
 596              	.LBB6:
 189:library.c     ****             UART_UartPutString("Error with Read Temp Hum: readByte\r\n");
 597              		.loc 1 189 0
 598 0098 2548     		ldr	r0, .L40+12
 599              	.LVL80:
 600 009a FFF7FEFF 		bl	UART_UartPutString
 601              	.LVL81:
ARM GAS  C:\Users\becca\AppData\Local\Temp\ccqvS2K0.s 			page 15


 190:library.c     ****             sprintf(buffer, "i = %d\t", i);
 602              		.loc 1 190 0
 603 009e 2200     		movs	r2, r4
 604 00a0 2449     		ldr	r1, .L40+16
 605 00a2 6846     		mov	r0, sp
 606 00a4 FFF7FEFF 		bl	sprintf
 607              	.LVL82:
 191:library.c     ****             UART_UartPutString(buffer);
 608              		.loc 1 191 0
 609 00a8 6846     		mov	r0, sp
 610 00aa FFF7FEFF 		bl	UART_UartPutString
 611              	.LVL83:
 612              	.L38:
 613              	.LBE6:
 185:library.c     ****         CyDelay(50);
 614              		.loc 1 185 0 discriminator 2
 615 00ae 0134     		adds	r4, r4, #1
 616              	.LVL84:
 617              	.L36:
 185:library.c     ****         CyDelay(50);
 618              		.loc 1 185 0 is_stmt 0 discriminator 1
 619 00b0 052C     		cmp	r4, #5
 620 00b2 E1DD     		ble	.L39
 621              	.LBE5:
 192:library.c     ****         }
 193:library.c     ****     }
 194:library.c     ****     
 195:library.c     ****     
 196:library.c     ****     UART_UartPutString("Ahhhhh false \r\n");
 622              		.loc 1 196 0 is_stmt 1
 623 00b4 2048     		ldr	r0, .L40+20
 624 00b6 FFF7FEFF 		bl	UART_UartPutString
 625              	.LVL85:
 197:library.c     ****     //if (readbuffer[2] != crc8(readbuffer, 2) || readbuffer[5] != crc8(readbuffer + 3, 2))
 198:library.c     ****     //    return false;
 199:library.c     **** 
 200:library.c     ****     int32_t stemp = ((uint32_t)readbuffer[0] << 8) | readbuffer[1];
 626              		.loc 1 200 0
 627 00ba 10AC     		add	r4, sp, #64
 628              	.LVL86:
 629 00bc 2078     		ldrb	r0, [r4]
 630 00be 0002     		lsls	r0, r0, #8
 631 00c0 6378     		ldrb	r3, [r4, #1]
 632 00c2 1843     		orrs	r0, r3
 633              	.LVL87:
 201:library.c     ****     stemp = ((4375 * stemp) >> 14) - 4500;
 634              		.loc 1 201 0
 635 00c4 1D4B     		ldr	r3, .L40+24
 636 00c6 5843     		muls	r0, r3
 637              	.LVL88:
 638 00c8 8013     		asrs	r0, r0, #14
 639 00ca 1D4B     		ldr	r3, .L40+28
 640 00cc 9C46     		mov	ip, r3
 641 00ce 6044     		add	r0, r0, ip
 642              	.LVL89:
 202:library.c     ****     float temp;
 203:library.c     ****     temp = (float)stemp / 100.0f;
ARM GAS  C:\Users\becca\AppData\Local\Temp\ccqvS2K0.s 			page 16


 643              		.loc 1 203 0
 644 00d0 FFF7FEFF 		bl	__aeabi_i2f
 645              	.LVL90:
 646 00d4 1B49     		ldr	r1, .L40+32
 647 00d6 FFF7FEFF 		bl	__aeabi_fdiv
 648              	.LVL91:
 649 00da 8046     		mov	r8, r0
 650              	.LVL92:
 204:library.c     ****     
 205:library.c     ****     UART_UartPutString("1\r\n");
 651              		.loc 1 205 0
 652 00dc 1A48     		ldr	r0, .L40+36
 653              	.LVL93:
 654 00de FFF7FEFF 		bl	UART_UartPutString
 655              	.LVL94:
 206:library.c     ****     
 207:library.c     ****     uint32_t shum = ((uint32_t)readbuffer[3] << 8) | readbuffer[4];
 656              		.loc 1 207 0
 657 00e2 E078     		ldrb	r0, [r4, #3]
 658 00e4 0002     		lsls	r0, r0, #8
 659 00e6 2379     		ldrb	r3, [r4, #4]
 660 00e8 1843     		orrs	r0, r3
 661              	.LVL95:
 208:library.c     ****     shum = (625 * shum) >> 12;
 662              		.loc 1 208 0
 663 00ea 184B     		ldr	r3, .L40+40
 664 00ec 5843     		muls	r0, r3
 665              	.LVL96:
 666 00ee 000B     		lsrs	r0, r0, #12
 667              	.LVL97:
 209:library.c     ****     float humidity;
 210:library.c     ****     humidity = (float)shum / 100.0f;
 668              		.loc 1 210 0
 669 00f0 FFF7FEFF 		bl	__aeabi_ui2f
 670              	.LVL98:
 671 00f4 1349     		ldr	r1, .L40+32
 672 00f6 FFF7FEFF 		bl	__aeabi_fdiv
 673              	.LVL99:
 674 00fa 041C     		adds	r4, r0, #0
 675              	.LVL100:
 211:library.c     ****     
 212:library.c     ****     UART_UartPutString("2\r\n");
 676              		.loc 1 212 0
 677 00fc 1448     		ldr	r0, .L40+44
 678              	.LVL101:
 679 00fe FFF7FEFF 		bl	UART_UartPutString
 680              	.LVL102:
 213:library.c     ****     
 214:library.c     ****     *outTemp = temp;
 681              		.loc 1 214 0
 682 0102 4346     		mov	r3, r8
 683 0104 3B60     		str	r3, [r7]
 215:library.c     ****     *outHum = humidity;
 684              		.loc 1 215 0
 685 0106 3460     		str	r4, [r6]
 216:library.c     ****     
 217:library.c     ****     UART_UartPutString("Ahhhhh before end of temphum\r\n");
ARM GAS  C:\Users\becca\AppData\Local\Temp\ccqvS2K0.s 			page 17


 686              		.loc 1 217 0
 687 0108 1248     		ldr	r0, .L40+48
 688 010a FFF7FEFF 		bl	UART_UartPutString
 689              	.LVL103:
 218:library.c     ****     I2C_I2CMasterSendStop(TIMEOUT);
 690              		.loc 1 218 0
 691 010e 1420     		movs	r0, #20
 692 0110 FFF7FEFF 		bl	I2C_I2CMasterSendStop
 693              	.LVL104:
 219:library.c     ****     UART_UartPutString("Ahhhhh end of temphum\r\n");
 694              		.loc 1 219 0
 695 0114 1048     		ldr	r0, .L40+52
 696 0116 FFF7FEFF 		bl	UART_UartPutString
 697              	.LVL105:
 698              	.L34:
 220:library.c     ****     return true;
 221:library.c     **** }
 699              		.loc 1 221 0
 700 011a 2800     		movs	r0, r5
 701 011c 12B0     		add	sp, sp, #72
 702              		@ sp needed
 703              	.LVL106:
 704              	.LVL107:
 705 011e 04BC     		pop	{r2}
 706 0120 9046     		mov	r8, r2
 707 0122 F0BD     		pop	{r4, r5, r6, r7, pc}
 708              	.L41:
 709              		.align	2
 710              	.L40:
 711 0124 F4000000 		.word	.LC14
 712 0128 20010000 		.word	.LC16
 713 012c 2C010000 		.word	.LC18
 714 0130 54010000 		.word	.LC20
 715 0134 7C010000 		.word	.LC22
 716 0138 84010000 		.word	.LC24
 717 013c 17110000 		.word	4375
 718 0140 6CEEFFFF 		.word	-4500
 719 0144 0000C842 		.word	1120403456
 720 0148 94010000 		.word	.LC26
 721 014c 71020000 		.word	625
 722 0150 98010000 		.word	.LC28
 723 0154 9C010000 		.word	.LC30
 724 0158 BC010000 		.word	.LC32
 725              		.cfi_endproc
 726              	.LFE41:
 727              		.size	SHT31_ReadTempHum, .-SHT31_ReadTempHum
 728              		.section	.text.SHT31_ReadTemperature,"ax",%progbits
 729              		.align	2
 730              		.global	SHT31_ReadTemperature
 731              		.code	16
 732              		.thumb_func
 733              		.type	SHT31_ReadTemperature, %function
 734              	SHT31_ReadTemperature:
 735              	.LFB42:
 222:library.c     **** 
 223:library.c     **** float SHT31_ReadTemperature(void) {
 736              		.loc 1 223 0
ARM GAS  C:\Users\becca\AppData\Local\Temp\ccqvS2K0.s 			page 18


 737              		.cfi_startproc
 738              		@ args = 0, pretend = 0, frame = 8
 739              		@ frame_needed = 0, uses_anonymous_args = 0
 740 0000 00B5     		push	{lr}
 741              		.cfi_def_cfa_offset 4
 742              		.cfi_offset 14, -4
 743 0002 83B0     		sub	sp, sp, #12
 744              		.cfi_def_cfa_offset 16
 224:library.c     ****     float t = 0;
 745              		.loc 1 224 0
 746 0004 0023     		movs	r3, #0
 747 0006 0193     		str	r3, [sp, #4]
 225:library.c     ****     float h = 0;
 748              		.loc 1 225 0
 749 0008 0093     		str	r3, [sp]
 226:library.c     ****     UART_UartPutString("Ahhhhh temp\r\n");
 750              		.loc 1 226 0
 751 000a 0748     		ldr	r0, .L45
 752 000c FFF7FEFF 		bl	UART_UartPutString
 753              	.LVL108:
 227:library.c     ****     return SHT31_ReadTempHum(&t, &h) ? t : NAN;
 754              		.loc 1 227 0
 755 0010 6946     		mov	r1, sp
 756 0012 01A8     		add	r0, sp, #4
 757 0014 FFF7FEFF 		bl	SHT31_ReadTempHum
 758              	.LVL109:
 759 0018 0028     		cmp	r0, #0
 760 001a 01D0     		beq	.L44
 761              		.loc 1 227 0 is_stmt 0 discriminator 1
 762 001c 0198     		ldr	r0, [sp, #4]
 763 001e 00E0     		b	.L43
 764              	.L44:
 765              		.loc 1 227 0
 766 0020 0248     		ldr	r0, .L45+4
 767              	.L43:
 228:library.c     **** }
 768              		.loc 1 228 0 is_stmt 1 discriminator 4
 769 0022 03B0     		add	sp, sp, #12
 770              		@ sp needed
 771 0024 00BD     		pop	{pc}
 772              	.L46:
 773 0026 C046     		.align	2
 774              	.L45:
 775 0028 D4010000 		.word	.LC34
 776 002c 0000C07F 		.word	2143289344
 777              		.cfi_endproc
 778              	.LFE42:
 779              		.size	SHT31_ReadTemperature, .-SHT31_ReadTemperature
 780              		.section	.text.SHT31_ReadHumidity,"ax",%progbits
 781              		.align	2
 782              		.global	SHT31_ReadHumidity
 783              		.code	16
 784              		.thumb_func
 785              		.type	SHT31_ReadHumidity, %function
 786              	SHT31_ReadHumidity:
 787              	.LFB43:
 229:library.c     **** 
ARM GAS  C:\Users\becca\AppData\Local\Temp\ccqvS2K0.s 			page 19


 230:library.c     **** float SHT31_ReadHumidity(void) {
 788              		.loc 1 230 0
 789              		.cfi_startproc
 790              		@ args = 0, pretend = 0, frame = 8
 791              		@ frame_needed = 0, uses_anonymous_args = 0
 792 0000 00B5     		push	{lr}
 793              		.cfi_def_cfa_offset 4
 794              		.cfi_offset 14, -4
 795 0002 83B0     		sub	sp, sp, #12
 796              		.cfi_def_cfa_offset 16
 231:library.c     ****     float h = 0;
 797              		.loc 1 231 0
 798 0004 0023     		movs	r3, #0
 799 0006 0193     		str	r3, [sp, #4]
 232:library.c     ****     return SHT31_ReadTempHum(NULL, &h) ? h : NAN;
 800              		.loc 1 232 0
 801 0008 01A9     		add	r1, sp, #4
 802 000a 0020     		movs	r0, #0
 803 000c FFF7FEFF 		bl	SHT31_ReadTempHum
 804              	.LVL110:
 805 0010 0028     		cmp	r0, #0
 806 0012 01D0     		beq	.L49
 807              		.loc 1 232 0 is_stmt 0 discriminator 1
 808 0014 0198     		ldr	r0, [sp, #4]
 809 0016 00E0     		b	.L48
 810              	.L49:
 811              		.loc 1 232 0
 812 0018 0148     		ldr	r0, .L50
 813              	.L48:
 233:library.c     **** }
 814              		.loc 1 233 0 is_stmt 1 discriminator 4
 815 001a 03B0     		add	sp, sp, #12
 816              		@ sp needed
 817 001c 00BD     		pop	{pc}
 818              	.L51:
 819 001e C046     		.align	2
 820              	.L50:
 821 0020 0000C07F 		.word	2143289344
 822              		.cfi_endproc
 823              	.LFE43:
 824              		.size	SHT31_ReadHumidity, .-SHT31_ReadHumidity
 825              		.section	.rodata.str1.4,"aMS",%progbits,1
 826              		.align	2
 827              	.LC0:
 828 0000 4572726F 		.ascii	"Error with write Command sendStart\015\012\000"
 828      72207769 
 828      74682077 
 828      72697465 
 828      20436F6D 
 829 0025 000000   		.space	3
 830              	.LC2:
 831 0028 65727220 		.ascii	"err = %d\012\000"
 831      3D202564 
 831      0A00
 832 0032 0000     		.space	2
 833              	.LC4:
 834 0034 4572726F 		.ascii	"Error with writeCommand: writeByte\015\012\000"
ARM GAS  C:\Users\becca\AppData\Local\Temp\ccqvS2K0.s 			page 20


 834      72207769 
 834      74682077 
 834      72697465 
 834      436F6D6D 
 835 0059 000000   		.space	3
 836              	.LC6:
 837 005c 4572726F 		.ascii	"Error with writeCommand: writeByte2\015\012\000"
 837      72207769 
 837      74682077 
 837      72697465 
 837      436F6D6D 
 838 0082 0000     		.space	2
 839              	.LC8:
 840 0084 4572726F 		.ascii	"Error with Read Status: writeCommand\015\012\000"
 840      72207769 
 840      74682052 
 840      65616420 
 840      53746174 
 841 00ab 00       		.space	1
 842              	.LC10:
 843 00ac 4572726F 		.ascii	"Error with Read Status: SendStart\015\012\000"
 843      72207769 
 843      74682052 
 843      65616420 
 843      53746174 
 844              	.LC12:
 845 00d0 4572726F 		.ascii	"Error with Read Status: ReadBuf\015\012\000"
 845      72207769 
 845      74682052 
 845      65616420 
 845      53746174 
 846 00f2 0000     		.space	2
 847              	.LC14:
 848 00f4 4572726F 		.ascii	"Error with Read Temp Hum: writeCommand\015\012\000"
 848      72207769 
 848      74682052 
 848      65616420 
 848      54656D70 
 849 011d 000000   		.space	3
 850              	.LC16:
 851 0120 41686868 		.ascii	"Ahhhhh\015\012\000"
 851      68680D0A 
 851      00
 852 0129 000000   		.space	3
 853              	.LC18:
 854 012c 4572726F 		.ascii	"Error with Read Temp Hum: SendStart\015\012\000"
 854      72207769 
 854      74682052 
 854      65616420 
 854      54656D70 
 855 0152 0000     		.space	2
 856              	.LC20:
 857 0154 4572726F 		.ascii	"Error with Read Temp Hum: readByte\015\012\000"
 857      72207769 
 857      74682052 
 857      65616420 
 857      54656D70 
ARM GAS  C:\Users\becca\AppData\Local\Temp\ccqvS2K0.s 			page 21


 858 0179 000000   		.space	3
 859              	.LC22:
 860 017c 69203D20 		.ascii	"i = %d\011\000"
 860      25640900 
 861              	.LC24:
 862 0184 41686868 		.ascii	"Ahhhhh false \015\012\000"
 862      68682066 
 862      616C7365 
 862      200D0A00 
 863              	.LC26:
 864 0194 310D0A00 		.ascii	"1\015\012\000"
 865              	.LC28:
 866 0198 320D0A00 		.ascii	"2\015\012\000"
 867              	.LC30:
 868 019c 41686868 		.ascii	"Ahhhhh before end of temphum\015\012\000"
 868      68682062 
 868      65666F72 
 868      6520656E 
 868      64206F66 
 869 01bb 00       		.space	1
 870              	.LC32:
 871 01bc 41686868 		.ascii	"Ahhhhh end of temphum\015\012\000"
 871      68682065 
 871      6E64206F 
 871      66207465 
 871      6D706875 
 872              	.LC34:
 873 01d4 41686868 		.ascii	"Ahhhhh temp\015\012\000"
 873      68682074 
 873      656D700D 
 873      0A00
 874              		.text
 875              	.Letext0:
 876              		.file 2 "c:\\program files (x86)\\cypress\\psoc creator\\4.4\\psoc creator\\import\\gnu\\arm\\5.4.
 877              		.file 3 "c:\\program files (x86)\\cypress\\psoc creator\\4.4\\psoc creator\\import\\gnu\\arm\\5.4.
 878              		.file 4 "<built-in>"
 879              		.file 5 "Generated_Source\\PSoC4/UART_SPI_UART.h"
 880              		.file 6 "Generated_Source\\PSoC4/I2C_I2C.h"
 881              		.file 7 "Generated_Source\\PSoC4/CyLib.h"
 882              		.file 8 "Generated_Source\\PSoC4/I2C.h"