ARM GAS  C:\Users\becca\AppData\Local\Temp\ccMD6FvI.s 			page 1


   1              		.syntax unified
   2              		.cpu cortex-m0
   3              		.fpu softvfp
   4              		.eabi_attribute 20, 1
   5              		.eabi_attribute 21, 1
   6              		.eabi_attribute 23, 3
   7              		.eabi_attribute 24, 1
   8              		.eabi_attribute 25, 1
   9              		.eabi_attribute 26, 1
  10              		.eabi_attribute 30, 1
  11              		.eabi_attribute 34, 0
  12              		.eabi_attribute 18, 4
  13              		.thumb
  14              		.syntax unified
  15              		.file	"main.c"
  16              		.text
  17              	.Ltext0:
  18              		.cfi_sections	.debug_frame
  19              		.section	.text.main,"ax",%progbits
  20              		.align	2
  21              		.global	main
  22              		.code	16
  23              		.thumb_func
  24              		.type	main, %function
  25              	main:
  26              	.LFB35:
  27              		.file 1 "main.c"
   1:main.c        **** #include <stdio.h>
   2:main.c        **** #include <stdbool.h>
   3:main.c        **** #include <math.h>
   4:main.c        **** #include <library.h>
   5:main.c        **** #include <project.h>
   6:main.c        **** #include <I2C.h>
   7:main.c        **** 
   8:main.c        **** bool enableHeater = false;
   9:main.c        **** 
  10:main.c        **** int main(void)
  11:main.c        **** {
  28              		.loc 1 11 0
  29              		.cfi_startproc
  30              		@ args = 0, pretend = 0, frame = 32
  31              		@ frame_needed = 0, uses_anonymous_args = 0
  32 0000 30B5     		push	{r4, r5, lr}
  33              		.cfi_def_cfa_offset 12
  34              		.cfi_offset 4, -12
  35              		.cfi_offset 5, -8
  36              		.cfi_offset 14, -4
  37 0002 89B0     		sub	sp, sp, #36
  38              		.cfi_def_cfa_offset 48
  12:main.c        ****     
  13:main.c        ****     CyGlobalIntEnable;
  39              		.loc 1 13 0
  40              		.syntax divided
  41              	@ 13 "main.c" 1
  42 0004 62B6     		CPSIE   i
  43              	@ 0 "" 2
  14:main.c        ****     UART_Start();
ARM GAS  C:\Users\becca\AppData\Local\Temp\ccMD6FvI.s 			page 2


  44              		.loc 1 14 0
  45              		.thumb
  46              		.syntax unified
  47 0006 FFF7FEFF 		bl	UART_Start
  48              	.LVL0:
  15:main.c        ****     
  16:main.c        ****     UART_UartPutString("__________________________\r\n");
  49              		.loc 1 16 0
  50 000a 1F48     		ldr	r0, .L6
  51 000c FFF7FEFF 		bl	UART_UartPutString
  52              	.LVL1:
  17:main.c        ****     UART_UartPutString("SHT31 test\r\n");
  53              		.loc 1 17 0
  54 0010 1E48     		ldr	r0, .L6+4
  55 0012 FFF7FEFF 		bl	UART_UartPutString
  56              	.LVL2:
  18:main.c        ****     
  19:main.c        ****     CyDelay(100);
  57              		.loc 1 19 0
  58 0016 6420     		movs	r0, #100
  59 0018 FFF7FEFF 		bl	CyDelay
  60              	.LVL3:
  20:main.c        ****     
  21:main.c        ****     if (!SHT31_Init()) {
  61              		.loc 1 21 0
  62 001c FFF7FEFF 		bl	SHT31_Init
  63              	.LVL4:
  64 0020 0028     		cmp	r0, #0
  65 0022 02D1     		bne	.L2
  22:main.c        ****         UART_UartPutString("Couldn't find SHT31\r\n");
  66              		.loc 1 22 0
  67 0024 1A48     		ldr	r0, .L6+8
  68 0026 FFF7FEFF 		bl	UART_UartPutString
  69              	.LVL5:
  70              	.L2:
  23:main.c        ****     }
  24:main.c        ****     
  25:main.c        ****     
  26:main.c        ****     UART_UartPutString("Heater Enabled State: ");
  71              		.loc 1 26 0
  72 002a 1A48     		ldr	r0, .L6+12
  73 002c FFF7FEFF 		bl	UART_UartPutString
  74              	.LVL6:
  27:main.c        ****     if (SHT31_IsHeaterEnabled()) {
  75              		.loc 1 27 0
  76 0030 FFF7FEFF 		bl	SHT31_IsHeaterEnabled
  77              	.LVL7:
  78 0034 0028     		cmp	r0, #0
  79 0036 03D0     		beq	.L3
  28:main.c        ****         UART_UartPutString("ENABLED\r\n");
  80              		.loc 1 28 0
  81 0038 1748     		ldr	r0, .L6+16
  82 003a FFF7FEFF 		bl	UART_UartPutString
  83              	.LVL8:
  84 003e 02E0     		b	.L4
  85              	.L3:
  29:main.c        ****     } else {
ARM GAS  C:\Users\becca\AppData\Local\Temp\ccMD6FvI.s 			page 3


  30:main.c        ****         UART_UartPutString("DISABLED\r\n");
  86              		.loc 1 30 0
  87 0040 1648     		ldr	r0, .L6+20
  88 0042 FFF7FEFF 		bl	UART_UartPutString
  89              	.LVL9:
  90              	.L4:
  31:main.c        ****     }
  32:main.c        ****     
  33:main.c        ****     CyDelay(1000);
  91              		.loc 1 33 0
  92 0046 FA25     		movs	r5, #250
  93 0048 AD00     		lsls	r5, r5, #2
  94 004a 2800     		movs	r0, r5
  95 004c FFF7FEFF 		bl	CyDelay
  96              	.LVL10:
  34:main.c        ****     
  35:main.c        ****     I2C_I2CMasterClearStatus();
  97              		.loc 1 35 0
  98 0050 FFF7FEFF 		bl	I2C_I2CMasterClearStatus
  99              	.LVL11:
  36:main.c        ****     uint8_t err = I2C_I2CMasterSendRestart(0x44, I2C_I2C_WRITE_XFER_MODE, 10);
 100              		.loc 1 36 0
 101 0054 0A22     		movs	r2, #10
 102 0056 0021     		movs	r1, #0
 103 0058 4420     		movs	r0, #68
 104 005a FFF7FEFF 		bl	I2C_I2CMasterSendRestart
 105              	.LVL12:
 106 005e C4B2     		uxtb	r4, r0
 107              	.LVL13:
  37:main.c        ****     I2C_I2CMasterSendStop(TIMEOUT);
 108              		.loc 1 37 0
 109 0060 1420     		movs	r0, #20
 110 0062 FFF7FEFF 		bl	I2C_I2CMasterSendStop
 111              	.LVL14:
  38:main.c        ****     
  39:main.c        ****     CyDelay(1000);
 112              		.loc 1 39 0
 113 0066 2800     		movs	r0, r5
 114 0068 FFF7FEFF 		bl	CyDelay
 115              	.LVL15:
  40:main.c        ****     if(err == I2C_I2C_MSTR_NO_ERROR){
 116              		.loc 1 40 0
 117 006c 002C     		cmp	r4, #0
 118 006e 07D1     		bne	.L5
 119              	.LBB2:
  41:main.c        ****         char buffer[32];
  42:main.c        ****         sprintf(buffer, "Found I2C device at 0x%02X\r\n", 0x44);
 120              		.loc 1 42 0
 121 0070 4422     		movs	r2, #68
 122 0072 0B49     		ldr	r1, .L6+24
 123 0074 6846     		mov	r0, sp
 124 0076 FFF7FEFF 		bl	sprintf
 125              	.LVL16:
  43:main.c        ****         UART_UartPutString(buffer);
 126              		.loc 1 43 0
 127 007a 6846     		mov	r0, sp
 128 007c FFF7FEFF 		bl	UART_UartPutString
ARM GAS  C:\Users\becca\AppData\Local\Temp\ccMD6FvI.s 			page 4


 129              	.LVL17:
 130              	.L5:
 131              	.LBE2:
  44:main.c        ****     } 
  45:main.c        ****     /*
  46:main.c        ****     CyDelay(50);
  47:main.c        ****     //for(;;){
  48:main.c        ****         float t = SHT31_ReadTemperature();
  49:main.c        ****         float h = SHT31_ReadHumidity();
  50:main.c        **** 
  51:main.c        ****         char buffer[64];
  52:main.c        ****         
  53:main.c        ****         if (!isnan(t)) {
  54:main.c        ****             snprintf(buffer, sizeof(buffer), "TempC = %.2f\t\t", t);
  55:main.c        ****             UART_UartPutString(buffer);
  56:main.c        ****         } else {
  57:main.c        ****             UART_UartPutString("Failed to read temperature\r\n");
  58:main.c        ****         }
  59:main.c        **** 
  60:main.c        ****         if (!isnan(h)) {
  61:main.c        ****             snprintf(buffer, sizeof(buffer), "Hum. %% = %.2f\r\n", h);
  62:main.c        ****             UART_UartPutString(buffer);
  63:main.c        ****         } else {
  64:main.c        ****             UART_UartPutString("Failed to read humidity\r\n");
  65:main.c        ****         }
  66:main.c        **** 
  67:main.c        ****         CyDelay(1000);
  68:main.c        ****         */
  69:main.c        ****     //}
  70:main.c        ****     
  71:main.c        ****    
  72:main.c        ****     
  73:main.c        **** }
 132              		.loc 1 73 0
 133 0080 0020     		movs	r0, #0
 134 0082 09B0     		add	sp, sp, #36
 135              		@ sp needed
 136              	.LVL18:
 137 0084 30BD     		pop	{r4, r5, pc}
 138              	.L7:
 139 0086 C046     		.align	2
 140              	.L6:
 141 0088 00000000 		.word	.LC0
 142 008c 20000000 		.word	.LC2
 143 0090 30000000 		.word	.LC4
 144 0094 48000000 		.word	.LC6
 145 0098 60000000 		.word	.LC8
 146 009c 6C000000 		.word	.LC10
 147 00a0 78000000 		.word	.LC12
 148              		.cfi_endproc
 149              	.LFE35:
 150              		.size	main, .-main
 151              		.global	enableHeater
 152              		.section	.rodata.str1.4,"aMS",%progbits,1
 153              		.align	2
 154              	.LC0:
 155 0000 5F5F5F5F 		.ascii	"__________________________\015\012\000"
ARM GAS  C:\Users\becca\AppData\Local\Temp\ccMD6FvI.s 			page 5


 155      5F5F5F5F 
 155      5F5F5F5F 
 155      5F5F5F5F 
 155      5F5F5F5F 
 156 001d 000000   		.space	3
 157              	.LC2:
 158 0020 53485433 		.ascii	"SHT31 test\015\012\000"
 158      31207465 
 158      73740D0A 
 158      00
 159 002d 000000   		.space	3
 160              	.LC4:
 161 0030 436F756C 		.ascii	"Couldn't find SHT31\015\012\000"
 161      646E2774 
 161      2066696E 
 161      64205348 
 161      5433310D 
 162 0046 0000     		.space	2
 163              	.LC6:
 164 0048 48656174 		.ascii	"Heater Enabled State: \000"
 164      65722045 
 164      6E61626C 
 164      65642053 
 164      74617465 
 165 005f 00       		.space	1
 166              	.LC8:
 167 0060 454E4142 		.ascii	"ENABLED\015\012\000"
 167      4C45440D 
 167      0A00
 168 006a 0000     		.space	2
 169              	.LC10:
 170 006c 44495341 		.ascii	"DISABLED\015\012\000"
 170      424C4544 
 170      0D0A00
 171 0077 00       		.space	1
 172              	.LC12:
 173 0078 466F756E 		.ascii	"Found I2C device at 0x%02X\015\012\000"
 173      64204932 
 173      43206465 
 173      76696365 
 173      20617420 
 174              		.bss
 175              		.type	enableHeater, %object
 176              		.size	enableHeater, 1
 177              	enableHeater:
 178 0000 00       		.space	1
 179              		.text
 180              	.Letext0:
 181              		.file 2 "c:\\program files (x86)\\cypress\\psoc creator\\4.4\\psoc creator\\import\\gnu\\arm\\5.4.
 182              		.file 3 "c:\\program files (x86)\\cypress\\psoc creator\\4.4\\psoc creator\\import\\gnu\\arm\\5.4.
 183              		.file 4 "c:\\program files (x86)\\cypress\\psoc creator\\4.4\\psoc creator\\import\\gnu\\arm\\5.4.
 184              		.file 5 "Generated_Source\\PSoC4/UART_SPI_UART.h"
 185              		.file 6 "Generated_Source\\PSoC4/UART.h"
 186              		.file 7 "Generated_Source\\PSoC4/CyLib.h"
 187              		.file 8 "./library.h"
 188              		.file 9 "Generated_Source\\PSoC4/I2C_I2C.h"